ARM GAS  C:\Users\Girish\AppData\Local\Temp\ccKbjNnR.s 			page 1


   1              		.syntax unified
   2              		.cpu cortex-m3
   3              		.fpu softvfp
   4              		.eabi_attribute 20, 1
   5              		.eabi_attribute 21, 1
   6              		.eabi_attribute 23, 3
   7              		.eabi_attribute 24, 1
   8              		.eabi_attribute 25, 1
   9              		.eabi_attribute 26, 1
  10              		.eabi_attribute 30, 1
  11              		.eabi_attribute 34, 1
  12              		.eabi_attribute 18, 4
  13              		.thumb
  14              		.syntax unified
  15              		.file	"fader.c"
  16              		.text
  17              	.Ltext0:
  18              		.cfi_sections	.debug_frame
  19              		.section	.text.Fader_Start,"ax",%progbits
  20              		.align	2
  21              		.global	Fader_Start
  22              		.thumb
  23              		.thumb_func
  24              		.type	Fader_Start, %function
  25              	Fader_Start:
  26              	.LFB110:
  27              		.file 1 "source\\bsw\\fader.c"
   1:source\bsw/fader.c **** /**
   2:source\bsw/fader.c **** * \file <filename>
   3:source\bsw/fader.c **** * \author <author-name>
   4:source\bsw/fader.c **** * \date <date>
   5:source\bsw/fader.c **** *
   6:source\bsw/fader.c **** * \brief <Symbolic File name>
   7:source\bsw/fader.c **** *
   8:source\bsw/fader.c **** * \copyright Copyright ©2016
   9:source\bsw/fader.c **** * Department of electrical engineering and information technology, Hochschule Darmstadt - Universit
  10:source\bsw/fader.c **** * Permission to use, copy, modify, and distribute this software and its documentation for education
  11:source\bsw/fader.c **** * (unless permitted by h_da) and official h_da projects, is hereby granted for enrolled students of
  12:source\bsw/fader.c **** * this paragraph and the following paragraph appear in all copies, modifications, and distributions
  13:source\bsw/fader.c **** * Contact Prof.Dr.-Ing. Peter Fromm, peter.fromm@h-da.de, Birkenweg 8 64295 Darmstadt - GERMANY for
  14:source\bsw/fader.c **** *
  15:source\bsw/fader.c **** * \warning This software is a PROTOTYPE version and is not designed or intended for use in producti
  16:source\bsw/fader.c **** * The user represents and warrants that it will NOT use or redistribute the Software for such purpo
  17:source\bsw/fader.c **** * This prototype is for research purposes only. This software is provided "AS IS," without a warran
  18:source\bsw/fader.c **** */
  19:source\bsw/fader.c **** 
  20:source\bsw/fader.c **** /*****************************************************************************/
  21:source\bsw/fader.c **** /* Include files                                                             */
  22:source\bsw/fader.c **** /*****************************************************************************/
  23:source\bsw/fader.c **** #include "fader.h"
  24:source\bsw/fader.c **** #include "project.h"
  25:source\bsw/fader.c **** /*****************************************************************************/
  26:source\bsw/fader.c **** /* Local pre-processor symbols/macros ('#define')                            */
  27:source\bsw/fader.c **** /*****************************************************************************/
  28:source\bsw/fader.c **** 
  29:source\bsw/fader.c **** /*****************************************************************************/
  30:source\bsw/fader.c **** /* Global variable definitions (declared in header file with 'extern')       */
ARM GAS  C:\Users\Girish\AppData\Local\Temp\ccKbjNnR.s 			page 2


  31:source\bsw/fader.c **** /*****************************************************************************/
  32:source\bsw/fader.c **** 
  33:source\bsw/fader.c **** /*****************************************************************************/
  34:source\bsw/fader.c **** /* Local type definitions ('typedef')                                        */
  35:source\bsw/fader.c **** /*****************************************************************************/
  36:source\bsw/fader.c **** 
  37:source\bsw/fader.c **** /*****************************************************************************/
  38:source\bsw/fader.c **** /* Local variable definitions ('static')                                     */
  39:source\bsw/fader.c **** /*****************************************************************************/
  40:source\bsw/fader.c **** 
  41:source\bsw/fader.c **** 
  42:source\bsw/fader.c **** 
  43:source\bsw/fader.c **** /*****************************************************************************/
  44:source\bsw/fader.c **** /* Local function prototypes ('static')                                      */
  45:source\bsw/fader.c **** /*****************************************************************************/
  46:source\bsw/fader.c **** 
  47:source\bsw/fader.c **** 
  48:source\bsw/fader.c **** /*****************************************************************************/
  49:source\bsw/fader.c **** /* Function implementation - global ('extern') and local ('static')          */
  50:source\bsw/fader.c **** /*****************************************************************************/
  51:source\bsw/fader.c **** 
  52:source\bsw/fader.c **** /**
  53:source\bsw/fader.c ****  * The function starts the PWM for all the LEDs
  54:source\bsw/fader.c ****  * @param no prameter
  55:source\bsw/fader.c ****  * @return RC_SUCCESS if ok
  56:source\bsw/fader.c ****  */
  57:source\bsw/fader.c **** RC_t Fader_Start()
  58:source\bsw/fader.c **** {
  28              		.loc 1 58 0
  29              		.cfi_startproc
  30              		@ args = 0, pretend = 0, frame = 0
  31              		@ frame_needed = 0, uses_anonymous_args = 0
  32              		@ link register save eliminated.
  59:source\bsw/fader.c ****     //PWM_Led_Red_Start();
  60:source\bsw/fader.c ****     //PWM_Led_Yellow_Start();
  61:source\bsw/fader.c ****     //PWM_Led_Green_Start();
  62:source\bsw/fader.c ****     
  63:source\bsw/fader.c ****     return RC_SUCCESS;
  64:source\bsw/fader.c **** }
  33              		.loc 1 64 0
  34 0000 0020     		movs	r0, #0
  35 0002 7047     		bx	lr
  36              		.cfi_endproc
  37              	.LFE110:
  38              		.size	Fader_Start, .-Fader_Start
  39              		.section	.text.Fader_init,"ax",%progbits
  40              		.align	2
  41              		.global	Fader_init
  42              		.thumb
  43              		.thumb_func
  44              		.type	Fader_init, %function
  45              	Fader_init:
  46              	.LFB111:
  65:source\bsw/fader.c **** 
  66:source\bsw/fader.c **** /**
  67:source\bsw/fader.c ****  * Initialize each LEDs to OFF state.
  68:source\bsw/fader.c ****  * @param none
ARM GAS  C:\Users\Girish\AppData\Local\Temp\ccKbjNnR.s 			page 3


  69:source\bsw/fader.c ****  * @return RC_SUCCESS if ok.
  70:source\bsw/fader.c ****  */
  71:source\bsw/fader.c **** RC_t Fader_init()
  72:source\bsw/fader.c **** {
  47              		.loc 1 72 0
  48              		.cfi_startproc
  49              		@ args = 0, pretend = 0, frame = 0
  50              		@ frame_needed = 0, uses_anonymous_args = 0
  51 0000 08B5     		push	{r3, lr}
  52              		.cfi_def_cfa_offset 8
  53              		.cfi_offset 3, -8
  54              		.cfi_offset 14, -4
  73:source\bsw/fader.c ****     PWM1_WriteCompare(0);
  55              		.loc 1 73 0
  56 0002 0020     		movs	r0, #0
  57 0004 FFF7FEFF 		bl	PWM1_WriteCompare
  58              	.LVL0:
  74:source\bsw/fader.c ****     PWM2_WriteCompare(0);
  59              		.loc 1 74 0
  60 0008 0020     		movs	r0, #0
  61 000a FFF7FEFF 		bl	PWM2_WriteCompare
  62              	.LVL1:
  75:source\bsw/fader.c ****     PWM3_WriteCompare(0);
  63              		.loc 1 75 0
  64 000e 0020     		movs	r0, #0
  65 0010 FFF7FEFF 		bl	PWM3_WriteCompare
  66              	.LVL2:
  76:source\bsw/fader.c ****     
  77:source\bsw/fader.c ****     return RC_SUCCESS;
  78:source\bsw/fader.c **** }
  67              		.loc 1 78 0
  68 0014 0020     		movs	r0, #0
  69 0016 08BD     		pop	{r3, pc}
  70              		.cfi_endproc
  71              	.LFE111:
  72              		.size	Fader_init, .-Fader_init
  73              		.section	.text.Fader_LED,"ax",%progbits
  74              		.align	2
  75              		.global	Fader_LED
  76              		.thumb
  77              		.thumb_func
  78              		.type	Fader_LED, %function
  79              	Fader_LED:
  80              	.LFB112:
  79:source\bsw/fader.c **** 
  80:source\bsw/fader.c **** RC_t Fader_LED()
  81:source\bsw/fader.c **** {
  81              		.loc 1 81 0
  82              		.cfi_startproc
  83              		@ args = 0, pretend = 0, frame = 0
  84              		@ frame_needed = 0, uses_anonymous_args = 0
  85 0000 38B5     		push	{r3, r4, r5, lr}
  86              		.cfi_def_cfa_offset 16
  87              		.cfi_offset 3, -16
  88              		.cfi_offset 4, -12
  89              		.cfi_offset 5, -8
  90              		.cfi_offset 14, -4
ARM GAS  C:\Users\Girish\AppData\Local\Temp\ccKbjNnR.s 			page 4


  91              	.LVL3:
  92              	.LBB2:
  82:source\bsw/fader.c ****     for(int i = 0; i < 255; i++)
  93              		.loc 1 82 0
  94 0002 0024     		movs	r4, #0
  95 0004 08E0     		b	.L5
  96              	.LVL4:
  97              	.L6:
  83:source\bsw/fader.c ****     {
  84:source\bsw/fader.c ****         PWM1_Start();
  98              		.loc 1 84 0 discriminator 3
  99 0006 FFF7FEFF 		bl	PWM1_Start
 100              	.LVL5:
  85:source\bsw/fader.c ****         //Turn ON Red LED
  86:source\bsw/fader.c ****         PWM1_WriteCompare(i);
 101              		.loc 1 86 0 discriminator 3
 102 000a E0B2     		uxtb	r0, r4
 103 000c FFF7FEFF 		bl	PWM1_WriteCompare
 104              	.LVL6:
  87:source\bsw/fader.c ****         CyDelay(5);
 105              		.loc 1 87 0 discriminator 3
 106 0010 0520     		movs	r0, #5
 107 0012 FFF7FEFF 		bl	CyDelay
 108              	.LVL7:
  82:source\bsw/fader.c ****     {
 109              		.loc 1 82 0 discriminator 3
 110 0016 0134     		adds	r4, r4, #1
 111              	.LVL8:
 112              	.L5:
  82:source\bsw/fader.c ****     {
 113              		.loc 1 82 0 is_stmt 0 discriminator 1
 114 0018 FE2C     		cmp	r4, #254
 115 001a F4DD     		ble	.L6
 116 001c FF25     		movs	r5, #255
 117 001e 0DE0     		b	.L7
 118              	.LVL9:
 119              	.L8:
 120              	.LBE2:
 121              	.LBB3:
  88:source\bsw/fader.c ****     }
  89:source\bsw/fader.c ****     
  90:source\bsw/fader.c ****     for(int i = 255; i > 0; i--)
  91:source\bsw/fader.c ****     {
  92:source\bsw/fader.c ****         PWM2_Start();
 122              		.loc 1 92 0 is_stmt 1 discriminator 3
 123 0020 FFF7FEFF 		bl	PWM2_Start
 124              	.LVL10:
  93:source\bsw/fader.c ****         //along with Turn OFF Red LED, Turn ON Yellow LED.
  94:source\bsw/fader.c ****         PWM1_WriteCompare(i);
 125              		.loc 1 94 0 discriminator 3
 126 0024 ECB2     		uxtb	r4, r5
 127 0026 2046     		mov	r0, r4
 128 0028 FFF7FEFF 		bl	PWM1_WriteCompare
 129              	.LVL11:
  95:source\bsw/fader.c ****         PWM2_WriteCompare(255-i);
 130              		.loc 1 95 0 discriminator 3
 131 002c E043     		mvns	r0, r4
ARM GAS  C:\Users\Girish\AppData\Local\Temp\ccKbjNnR.s 			page 5


 132 002e C0B2     		uxtb	r0, r0
 133 0030 FFF7FEFF 		bl	PWM2_WriteCompare
 134              	.LVL12:
  96:source\bsw/fader.c ****         CyDelay(5);
 135              		.loc 1 96 0 discriminator 3
 136 0034 0520     		movs	r0, #5
 137 0036 FFF7FEFF 		bl	CyDelay
 138              	.LVL13:
  90:source\bsw/fader.c ****     {
 139              		.loc 1 90 0 discriminator 3
 140 003a 013D     		subs	r5, r5, #1
 141              	.LVL14:
 142              	.L7:
  90:source\bsw/fader.c ****     {
 143              		.loc 1 90 0 is_stmt 0 discriminator 1
 144 003c 002D     		cmp	r5, #0
 145 003e EFDC     		bgt	.L8
 146 0040 0024     		movs	r4, #0
 147 0042 0DE0     		b	.L9
 148              	.LVL15:
 149              	.L10:
 150              	.LBE3:
 151              	.LBB4:
  97:source\bsw/fader.c ****     }
  98:source\bsw/fader.c **** 
  99:source\bsw/fader.c ****     for(int i = 0; i < 255; i++)
 100:source\bsw/fader.c ****     {
 101:source\bsw/fader.c ****         PWM3_Start();
 152              		.loc 1 101 0 is_stmt 1 discriminator 3
 153 0044 FFF7FEFF 		bl	PWM3_Start
 154              	.LVL16:
 102:source\bsw/fader.c ****         //along with Turn OFF Yellow LED, Turn ON Green LED.
 103:source\bsw/fader.c ****         PWM2_WriteCompare(255-i);
 155              		.loc 1 103 0 discriminator 3
 156 0048 E5B2     		uxtb	r5, r4
 157 004a E843     		mvns	r0, r5
 158 004c C0B2     		uxtb	r0, r0
 159 004e FFF7FEFF 		bl	PWM2_WriteCompare
 160              	.LVL17:
 104:source\bsw/fader.c ****         PWM3_WriteCompare(i);
 161              		.loc 1 104 0 discriminator 3
 162 0052 2846     		mov	r0, r5
 163 0054 FFF7FEFF 		bl	PWM3_WriteCompare
 164              	.LVL18:
 105:source\bsw/fader.c ****         CyDelay(5);
 165              		.loc 1 105 0 discriminator 3
 166 0058 0520     		movs	r0, #5
 167 005a FFF7FEFF 		bl	CyDelay
 168              	.LVL19:
  99:source\bsw/fader.c ****     {
 169              		.loc 1 99 0 discriminator 3
 170 005e 0134     		adds	r4, r4, #1
 171              	.LVL20:
 172              	.L9:
  99:source\bsw/fader.c ****     {
 173              		.loc 1 99 0 is_stmt 0 discriminator 1
 174 0060 FE2C     		cmp	r4, #254
ARM GAS  C:\Users\Girish\AppData\Local\Temp\ccKbjNnR.s 			page 6


 175 0062 EFDD     		ble	.L10
 176 0064 FF24     		movs	r4, #255
 177              	.LVL21:
 178 0066 06E0     		b	.L11
 179              	.LVL22:
 180              	.L12:
 181              	.LBE4:
 182              	.LBB5:
 106:source\bsw/fader.c ****     }
 107:source\bsw/fader.c ****     
 108:source\bsw/fader.c ****     for(int i = 255; i > 0; i--)
 109:source\bsw/fader.c ****     {
 110:source\bsw/fader.c ****         //Turn OFF Green LED
 111:source\bsw/fader.c ****         PWM3_WriteCompare(i);
 183              		.loc 1 111 0 is_stmt 1 discriminator 3
 184 0068 E0B2     		uxtb	r0, r4
 185 006a FFF7FEFF 		bl	PWM3_WriteCompare
 186              	.LVL23:
 112:source\bsw/fader.c ****         CyDelay(5);
 187              		.loc 1 112 0 discriminator 3
 188 006e 0520     		movs	r0, #5
 189 0070 FFF7FEFF 		bl	CyDelay
 190              	.LVL24:
 108:source\bsw/fader.c ****     {
 191              		.loc 1 108 0 discriminator 3
 192 0074 013C     		subs	r4, r4, #1
 193              	.LVL25:
 194              	.L11:
 108:source\bsw/fader.c ****     {
 195              		.loc 1 108 0 is_stmt 0 discriminator 1
 196 0076 002C     		cmp	r4, #0
 197 0078 F6DC     		bgt	.L12
 198              	.LBE5:
 113:source\bsw/fader.c ****     }    
 114:source\bsw/fader.c ****     return RC_SUCCESS;
 115:source\bsw/fader.c **** }
 199              		.loc 1 115 0 is_stmt 1
 200 007a 0020     		movs	r0, #0
 201 007c 38BD     		pop	{r3, r4, r5, pc}
 202              		.cfi_endproc
 203              	.LFE112:
 204              		.size	Fader_LED, .-Fader_LED
 205 007e 00BF     		.text
 206              	.Letext0:
 207              		.file 2 "source\\bsw\\global.h"
 208              		.file 3 "c:\\program files (x86)\\cypress\\psoc creator\\4.4\\psoc creator\\import\\gnu\\arm\\5.4.
 209              		.file 4 "c:\\program files (x86)\\cypress\\psoc creator\\4.4\\psoc creator\\import\\gnu\\arm\\5.4.
 210              		.file 5 "Generated_Source\\PSoC5/ErikaOS_1_common_ee_types.inc"
 211              		.file 6 "Generated_Source\\PSoC5/ErikaOS_1_cortex_mx_ee_cpu.inc"
 212              		.file 7 "Generated_Source\\PSoC5/ErikaOS_1_ee_oo_intfunc.inc"
 213              		.file 8 "Generated_Source\\PSoC5/ErikaOS_1_cortex_mx_ee_context.inc"
 214              		.file 9 "Generated_Source\\PSoC5/ErikaOS_1_common_ee_primitives.inc"
 215              		.file 10 "Generated_Source\\PSoC5/core_cm3.h"
 216              		.file 11 "Generated_Source\\PSoC5/PWM1.h"
 217              		.file 12 "Generated_Source\\PSoC5/PWM2.h"
 218              		.file 13 "Generated_Source\\PSoC5/PWM3.h"
 219              		.file 14 "Generated_Source\\PSoC5/CyLib.h"
ARM GAS  C:\Users\Girish\AppData\Local\Temp\ccKbjNnR.s 			page 7

