ARM GAS  C:\Users\Girish\AppData\Local\Temp\ccfdQ2N5.s 			page 1


   1              		.syntax unified
   2              		.cpu cortex-m3
   3              		.fpu softvfp
   4              		.eabi_attribute 20, 1
   5              		.eabi_attribute 21, 1
   6              		.eabi_attribute 23, 3
   7              		.eabi_attribute 24, 1
   8              		.eabi_attribute 25, 1
   9              		.eabi_attribute 26, 1
  10              		.eabi_attribute 30, 1
  11              		.eabi_attribute 34, 1
  12              		.eabi_attribute 18, 4
  13              		.thumb
  14              		.syntax unified
  15              		.file	"glower.c"
  16              		.text
  17              	.Ltext0:
  18              		.cfi_sections	.debug_frame
  19              		.section	.text.RGB__Glower,"ax",%progbits
  20              		.align	2
  21              		.global	RGB__Glower
  22              		.thumb
  23              		.thumb_func
  24              		.type	RGB__Glower, %function
  25              	RGB__Glower:
  26              	.LFB110:
  27              		.file 1 "source\\bsw\\glower.c"
   1:source\bsw/glower.c **** /**
   2:source\bsw/glower.c **** * \file <filename>
   3:source\bsw/glower.c **** * \author <author-name>
   4:source\bsw/glower.c **** * \date <date>
   5:source\bsw/glower.c **** *
   6:source\bsw/glower.c **** * \brief <Symbolic File name>
   7:source\bsw/glower.c **** *
   8:source\bsw/glower.c **** * \copyright Copyright ©2016
   9:source\bsw/glower.c **** * Department of electrical engineering and information technology, Hochschule Darmstadt - Universit
  10:source\bsw/glower.c **** * Permission to use, copy, modify, and distribute this software and its documentation for education
  11:source\bsw/glower.c **** * (unless permitted by h_da) and official h_da projects, is hereby granted for enrolled students of
  12:source\bsw/glower.c **** * this paragraph and the following paragraph appear in all copies, modifications, and distributions
  13:source\bsw/glower.c **** * Contact Prof.Dr.-Ing. Peter Fromm, peter.fromm@h-da.de, Birkenweg 8 64295 Darmstadt - GERMANY for
  14:source\bsw/glower.c **** *
  15:source\bsw/glower.c **** * \warning This software is a PROTOTYPE version and is not designed or intended for use in producti
  16:source\bsw/glower.c **** * The user represents and warrants that it will NOT use or redistribute the Software for such purpo
  17:source\bsw/glower.c **** * This prototype is for research purposes only. This software is provided "AS IS," without a warran
  18:source\bsw/glower.c **** */
  19:source\bsw/glower.c **** 
  20:source\bsw/glower.c **** /*****************************************************************************/
  21:source\bsw/glower.c **** /* Include files                                                             */
  22:source\bsw/glower.c **** /*****************************************************************************/
  23:source\bsw/glower.c **** #include "glower.h"
  24:source\bsw/glower.c **** #include "project.h"
  25:source\bsw/glower.c **** 
  26:source\bsw/glower.c **** #include "glower.h"
  27:source\bsw/glower.c **** /*****************************************************************************/
  28:source\bsw/glower.c **** /* Local pre-processor symbols/macros ('#define')                            */
  29:source\bsw/glower.c **** /*****************************************************************************/
  30:source\bsw/glower.c **** 
ARM GAS  C:\Users\Girish\AppData\Local\Temp\ccfdQ2N5.s 			page 2


  31:source\bsw/glower.c **** /*****************************************************************************/
  32:source\bsw/glower.c **** /* Global variable definitions (declared in header file with 'extern')       */
  33:source\bsw/glower.c **** /*****************************************************************************/
  34:source\bsw/glower.c **** 
  35:source\bsw/glower.c **** /*****************************************************************************/
  36:source\bsw/glower.c **** /* Local type definitions ('typedef')                                        */
  37:source\bsw/glower.c **** /*****************************************************************************/
  38:source\bsw/glower.c **** 
  39:source\bsw/glower.c **** /*****************************************************************************/
  40:source\bsw/glower.c **** /* Local variable definitions ('static')                                     */
  41:source\bsw/glower.c **** /*****************************************************************************/
  42:source\bsw/glower.c **** 
  43:source\bsw/glower.c **** /*****************************************************************************/
  44:source\bsw/glower.c **** /* Local function prototypes ('static')                                      */
  45:source\bsw/glower.c **** /*****************************************************************************/
  46:source\bsw/glower.c **** 
  47:source\bsw/glower.c **** 
  48:source\bsw/glower.c **** /*****************************************************************************/
  49:source\bsw/glower.c **** /* Function implementation - global ('extern') and local ('static')          */
  50:source\bsw/glower.c **** /*****************************************************************************/
  51:source\bsw/glower.c **** const RGB__Glow_t RGB_glowtable_1[9] = {
  52:source\bsw/glower.c **** //Red   Green   Blue    TimeInMS
  53:source\bsw/glower.c **** { 255,  0,      0,      5000},
  54:source\bsw/glower.c **** { 0,    255,    0,      5000},
  55:source\bsw/glower.c **** { 0,    0,      255,    5000},
  56:source\bsw/glower.c **** { 0,    0,      0,      100},
  57:source\bsw/glower.c **** { 255,  255,    255,    100},
  58:source\bsw/glower.c **** { 0,    0,      0,      100},
  59:source\bsw/glower.c **** { 255,  255,    255,    100},
  60:source\bsw/glower.c **** { 0,    0,      0,      100},
  61:source\bsw/glower.c **** { 255,  255,    255,    100}
  62:source\bsw/glower.c **** };
  63:source\bsw/glower.c **** 
  64:source\bsw/glower.c **** 
  65:source\bsw/glower.c **** 
  66:source\bsw/glower.c **** void RGB__Glower()
  67:source\bsw/glower.c **** {   
  28              		.loc 1 67 0
  29              		.cfi_startproc
  30              		@ args = 0, pretend = 0, frame = 0
  31              		@ frame_needed = 0, uses_anonymous_args = 0
  32 0000 38B5     		push	{r3, r4, r5, lr}
  33              		.cfi_def_cfa_offset 16
  34              		.cfi_offset 3, -16
  35              		.cfi_offset 4, -12
  36              		.cfi_offset 5, -8
  37              		.cfi_offset 14, -4
  68:source\bsw/glower.c ****     static uint16_t i = 0;
  69:source\bsw/glower.c ****     RGB_Red_Write(RGB_glowtable_1[i].RGB__RedValue);
  38              		.loc 1 69 0
  39 0002 194D     		ldr	r5, .L5
  40 0004 194C     		ldr	r4, .L5+4
  41 0006 2388     		ldrh	r3, [r4]
  42 0008 03EB4303 		add	r3, r3, r3, lsl #1
  43 000c 5A00     		lsls	r2, r3, #1
  44 000e A85C     		ldrb	r0, [r5, r2]	@ zero_extendqisi2
  45 0010 FFF7FEFF 		bl	RGB_Red_Write
ARM GAS  C:\Users\Girish\AppData\Local\Temp\ccfdQ2N5.s 			page 3


  46              	.LVL0:
  70:source\bsw/glower.c ****     RGB_Green_Write(RGB_glowtable_1[i].RGB__GreenValue);
  47              		.loc 1 70 0
  48 0014 2388     		ldrh	r3, [r4]
  49 0016 03EB4303 		add	r3, r3, r3, lsl #1
  50 001a 5A00     		lsls	r2, r3, #1
  51 001c 2A44     		add	r2, r2, r5
  52 001e 5078     		ldrb	r0, [r2, #1]	@ zero_extendqisi2
  53 0020 FFF7FEFF 		bl	RGB_Green_Write
  54              	.LVL1:
  71:source\bsw/glower.c ****     RGB_Blue_Write(RGB_glowtable_1[i].RGB__BlueValue);
  55              		.loc 1 71 0
  56 0024 2388     		ldrh	r3, [r4]
  57 0026 03EB4303 		add	r3, r3, r3, lsl #1
  58 002a 5A00     		lsls	r2, r3, #1
  59 002c 1544     		add	r5, r5, r2
  60 002e A878     		ldrb	r0, [r5, #2]	@ zero_extendqisi2
  61 0030 FFF7FEFF 		bl	RGB_Blue_Write
  62              	.LVL2:
  72:source\bsw/glower.c **** 
  73:source\bsw/glower.c ****     if( i == 8)
  63              		.loc 1 73 0
  64 0034 2388     		ldrh	r3, [r4]
  65 0036 082B     		cmp	r3, #8
  66 0038 02D1     		bne	.L2
  74:source\bsw/glower.c ****     {
  75:source\bsw/glower.c ****         i = 0;
  67              		.loc 1 75 0
  68 003a 0022     		movs	r2, #0
  69 003c 2280     		strh	r2, [r4]	@ movhi
  70 003e 02E0     		b	.L3
  71              	.L2:
  76:source\bsw/glower.c ****     }
  77:source\bsw/glower.c ****     else
  78:source\bsw/glower.c ****     {
  79:source\bsw/glower.c ****         i++;
  72              		.loc 1 79 0
  73 0040 0133     		adds	r3, r3, #1
  74 0042 0A4A     		ldr	r2, .L5+4
  75 0044 1380     		strh	r3, [r2]	@ movhi
  76              	.L3:
  80:source\bsw/glower.c ****     }
  81:source\bsw/glower.c ****     CancelAlarm(alarm_glower_delay);
  77              		.loc 1 81 0
  78 0046 0120     		movs	r0, #1
  79 0048 FFF7FEFF 		bl	EE_oo_CancelAlarm
  80              	.LVL3:
  82:source\bsw/glower.c ****     SetRelAlarm(alarm_glower_delay, RGB_glowtable_1[i].RGB__Delay, 0);
  81              		.loc 1 82 0
  82 004c 074B     		ldr	r3, .L5+4
  83 004e 1B88     		ldrh	r3, [r3]
  84 0050 03EB4303 		add	r3, r3, r3, lsl #1
  85 0054 5A00     		lsls	r2, r3, #1
  86 0056 044B     		ldr	r3, .L5
  87 0058 1344     		add	r3, r3, r2
  88 005a 0022     		movs	r2, #0
  89 005c 9988     		ldrh	r1, [r3, #4]
ARM GAS  C:\Users\Girish\AppData\Local\Temp\ccfdQ2N5.s 			page 4


  90 005e 0120     		movs	r0, #1
  91 0060 FFF7FEFF 		bl	EE_oo_SetRelAlarm
  92              	.LVL4:
  93 0064 38BD     		pop	{r3, r4, r5, pc}
  94              	.L6:
  95 0066 00BF     		.align	2
  96              	.L5:
  97 0068 00000000 		.word	.LANCHOR0
  98 006c 00000000 		.word	.LANCHOR1
  99              		.cfi_endproc
 100              	.LFE110:
 101              		.size	RGB__Glower, .-RGB__Glower
 102              		.global	RGB_glowtable_1
 103              		.section	.rodata
 104              		.align	2
 105              		.set	.LANCHOR0,. + 0
 106              		.type	RGB_glowtable_1, %object
 107              		.size	RGB_glowtable_1, 54
 108              	RGB_glowtable_1:
 109 0000 FF       		.byte	-1
 110 0001 00       		.byte	0
 111 0002 00       		.byte	0
 112 0003 00       		.space	1
 113 0004 8813     		.short	5000
 114 0006 00       		.byte	0
 115 0007 FF       		.byte	-1
 116 0008 00       		.byte	0
 117 0009 00       		.space	1
 118 000a 8813     		.short	5000
 119 000c 00       		.byte	0
 120 000d 00       		.byte	0
 121 000e FF       		.byte	-1
 122 000f 00       		.space	1
 123 0010 8813     		.short	5000
 124 0012 00       		.byte	0
 125 0013 00       		.byte	0
 126 0014 00       		.byte	0
 127 0015 00       		.space	1
 128 0016 6400     		.short	100
 129 0018 FF       		.byte	-1
 130 0019 FF       		.byte	-1
 131 001a FF       		.byte	-1
 132 001b 00       		.space	1
 133 001c 6400     		.short	100
 134 001e 00       		.byte	0
 135 001f 00       		.byte	0
 136 0020 00       		.byte	0
 137 0021 00       		.space	1
 138 0022 6400     		.short	100
 139 0024 FF       		.byte	-1
 140 0025 FF       		.byte	-1
 141 0026 FF       		.byte	-1
 142 0027 00       		.space	1
 143 0028 6400     		.short	100
 144 002a 00       		.byte	0
 145 002b 00       		.byte	0
 146 002c 00       		.byte	0
ARM GAS  C:\Users\Girish\AppData\Local\Temp\ccfdQ2N5.s 			page 5


 147 002d 00       		.space	1
 148 002e 6400     		.short	100
 149 0030 FF       		.byte	-1
 150 0031 FF       		.byte	-1
 151 0032 FF       		.byte	-1
 152 0033 00       		.space	1
 153 0034 6400     		.short	100
 154              		.bss
 155              		.align	1
 156              		.set	.LANCHOR1,. + 0
 157              		.type	i.6238, %object
 158              		.size	i.6238, 2
 159              	i.6238:
 160 0000 0000     		.space	2
 161              		.text
 162              	.Letext0:
 163              		.file 2 "source\\bsw\\global.h"
 164              		.file 3 "c:\\program files (x86)\\cypress\\psoc creator\\4.4\\psoc creator\\import\\gnu\\arm\\5.4.
 165              		.file 4 "c:\\program files (x86)\\cypress\\psoc creator\\4.4\\psoc creator\\import\\gnu\\arm\\5.4.
 166              		.file 5 "Generated_Source\\PSoC5/cytypes.h"
 167              		.file 6 "Generated_Source\\PSoC5/ErikaOS_1_common_ee_types.inc"
 168              		.file 7 "Generated_Source\\PSoC5/ErikaOS_1_cortex_mx_ee_cpu.inc"
 169              		.file 8 "source\\bsw\\glower.h"
 170              		.file 9 "Generated_Source\\PSoC5/ErikaOS_1_ee_oo_intfunc.inc"
 171              		.file 10 "Generated_Source\\PSoC5/ErikaOS_1_cortex_mx_ee_context.inc"
 172              		.file 11 "Generated_Source\\PSoC5/ErikaOS_1_common_ee_primitives.inc"
 173              		.file 12 "Generated_Source\\PSoC5/core_cm3.h"
 174              		.file 13 "Generated_Source\\PSoC5/RGB_Red.h"
 175              		.file 14 "Generated_Source\\PSoC5/RGB_Green.h"
 176              		.file 15 "Generated_Source\\PSoC5/RGB_Blue.h"
 177              		.file 16 "Generated_Source\\PSoC5/ErikaOS_1_ee_oo_kernel.inc"