ARM GAS  C:\Users\giris\AppData\Local\Temp\ccqzSR0n.s 			page 1


   1              		.syntax unified
   2              		.cpu cortex-m3
   3              		.fpu softvfp
   4              		.eabi_attribute 20, 1
   5              		.eabi_attribute 21, 1
   6              		.eabi_attribute 23, 3
   7              		.eabi_attribute 24, 1
   8              		.eabi_attribute 25, 1
   9              		.eabi_attribute 26, 1
  10              		.eabi_attribute 30, 1
  11              		.eabi_attribute 34, 1
  12              		.eabi_attribute 18, 4
  13              		.thumb
  14              		.syntax unified
  15              		.file	"button.c"
  16              		.text
  17              	.Ltext0:
  18              		.cfi_sections	.debug_frame
  19              		.section	.text.BUTTON_Init,"ax",%progbits
  20              		.align	2
  21              		.global	BUTTON_Init
  22              		.thumb
  23              		.thumb_func
  24              		.type	BUTTON_Init, %function
  25              	BUTTON_Init:
  26              	.LFB110:
  27              		.file 1 "source\\bsw\\button.c"
   1:source\bsw/button.c **** /**
   2:source\bsw/button.c **** * \file <filename>
   3:source\bsw/button.c **** * \author <author-name>
   4:source\bsw/button.c **** * \date <date>
   5:source\bsw/button.c **** *
   6:source\bsw/button.c **** * \brief <Symbolic File name>
   7:source\bsw/button.c **** *
   8:source\bsw/button.c **** * \copyright Copyright ©2016
   9:source\bsw/button.c **** * Department of electrical engineering and information technology, Hochschule Darmstadt - Universit
  10:source\bsw/button.c **** * Permission to use, copy, modify, and distribute this software and its documentation for education
  11:source\bsw/button.c **** * (unless permitted by h_da) and official h_da projects, is hereby granted for enrolled students of
  12:source\bsw/button.c **** * this paragraph and the following paragraph appear in all copies, modifications, and distributions
  13:source\bsw/button.c **** * Contact Prof.Dr.-Ing. Peter Fromm, peter.fromm@h-da.de, Birkenweg 8 64295 Darmstadt - GERMANY for
  14:source\bsw/button.c **** *
  15:source\bsw/button.c **** * \warning This software is a PROTOTYPE version and is not designed or intended for use in producti
  16:source\bsw/button.c **** * The user represents and warrants that it will NOT use or redistribute the Software for such purpo
  17:source\bsw/button.c **** * This prototype is for research purposes only. This software is provided "AS IS," without a warran
  18:source\bsw/button.c **** */
  19:source\bsw/button.c **** 
  20:source\bsw/button.c **** /*****************************************************************************/
  21:source\bsw/button.c **** /* Include files                                                             */
  22:source\bsw/button.c **** /*****************************************************************************/
  23:source\bsw/button.c **** #include "button.h"
  24:source\bsw/button.c **** #include "project.h"
  25:source\bsw/button.c **** /*****************************************************************************/
  26:source\bsw/button.c **** /* Local pre-processor symbols/macros ('#define')                            */
  27:source\bsw/button.c **** /*****************************************************************************/
  28:source\bsw/button.c **** 
  29:source\bsw/button.c **** /*****************************************************************************/
  30:source\bsw/button.c **** /* Global variable definitions (declared in header file with 'extern')       */
ARM GAS  C:\Users\giris\AppData\Local\Temp\ccqzSR0n.s 			page 2


  31:source\bsw/button.c **** /*****************************************************************************/
  32:source\bsw/button.c **** 
  33:source\bsw/button.c **** /*****************************************************************************/
  34:source\bsw/button.c **** /* Local type definitions ('typedef')                                        */
  35:source\bsw/button.c **** /*****************************************************************************/
  36:source\bsw/button.c **** 
  37:source\bsw/button.c **** /*****************************************************************************/
  38:source\bsw/button.c **** /* Local variable definitions ('static')                                     */
  39:source\bsw/button.c **** /*****************************************************************************/
  40:source\bsw/button.c **** 
  41:source\bsw/button.c **** 
  42:source\bsw/button.c **** 
  43:source\bsw/button.c **** /*****************************************************************************/
  44:source\bsw/button.c **** /* Local function prototypes ('static')                                      */
  45:source\bsw/button.c **** /*****************************************************************************/
  46:source\bsw/button.c **** 
  47:source\bsw/button.c **** 
  48:source\bsw/button.c **** /*****************************************************************************/
  49:source\bsw/button.c **** /* Function implementation - global ('extern') and local ('static')          */
  50:source\bsw/button.c **** /*****************************************************************************/
  51:source\bsw/button.c **** 
  52:source\bsw/button.c **** /**
  53:source\bsw/button.c ****  * Initialize Button
  54:source\bsw/button.c ****  * @param cyisraddress address - the address of the ISR to be called
  55:source\bsw/button.c ****  * @return RC_SUCCESS if ok
  56:source\bsw/button.c ****  */
  57:source\bsw/button.c **** RC_t BUTTON_Init(cyisraddress address)
  58:source\bsw/button.c **** {
  28              		.loc 1 58 0
  29              		.cfi_startproc
  30              		@ args = 0, pretend = 0, frame = 0
  31              		@ frame_needed = 0, uses_anonymous_args = 0
  32              	.LVL0:
  59:source\bsw/button.c ****     if( address != 0) isr_button_StartEx(address);
  33              		.loc 1 59 0
  34 0000 20B1     		cbz	r0, .L4
  58:source\bsw/button.c ****     if( address != 0) isr_button_StartEx(address);
  35              		.loc 1 58 0 discriminator 1
  36 0002 08B5     		push	{r3, lr}
  37              		.cfi_def_cfa_offset 8
  38              		.cfi_offset 3, -8
  39              		.cfi_offset 14, -4
  40              		.loc 1 59 0 discriminator 1
  41 0004 FFF7FEFF 		bl	isr_button_StartEx
  42              	.LVL1:
  60:source\bsw/button.c ****     
  61:source\bsw/button.c ****     return RC_SUCCESS;
  62:source\bsw/button.c **** }
  43              		.loc 1 62 0 discriminator 1
  44 0008 0020     		movs	r0, #0
  45 000a 08BD     		pop	{r3, pc}
  46              	.LVL2:
  47              	.L4:
  48              		.cfi_def_cfa_offset 0
  49              		.cfi_restore 3
  50              		.cfi_restore 14
  51              		.loc 1 62 0 is_stmt 0
ARM GAS  C:\Users\giris\AppData\Local\Temp\ccqzSR0n.s 			page 3


  52 000c 0020     		movs	r0, #0
  53              	.LVL3:
  54 000e 7047     		bx	lr
  55              		.cfi_endproc
  56              	.LFE110:
  57              		.size	BUTTON_Init, .-BUTTON_Init
  58              		.section	.text.BUTTON_IsPressed,"ax",%progbits
  59              		.align	2
  60              		.global	BUTTON_IsPressed
  61              		.thumb
  62              		.thumb_func
  63              		.type	BUTTON_IsPressed, %function
  64              	BUTTON_IsPressed:
  65              	.LFB111:
  63:source\bsw/button.c **** 
  64:source\bsw/button.c **** /**
  65:source\bsw/button.c ****  * Initialize Button
  66:source\bsw/button.c ****  * @param BUTTON_id_t button - check if the corresponding button is pressed
  67:source\bsw/button.c ****  * @return TRUE if button is pressed
  68:source\bsw/button.c ****  */
  69:source\bsw/button.c **** boolean_t BUTTON_IsPressed(myButton_t button)
  70:source\bsw/button.c **** {
  66              		.loc 1 70 0 is_stmt 1
  67              		.cfi_startproc
  68              		@ args = 0, pretend = 0, frame = 0
  69              		@ frame_needed = 0, uses_anonymous_args = 0
  70              	.LVL4:
  71 0000 08B5     		push	{r3, lr}
  72              		.cfi_def_cfa_offset 8
  73              		.cfi_offset 3, -8
  74              		.cfi_offset 14, -4
  75              	.LVL5:
  71:source\bsw/button.c ****     boolean_t result = FALSE;
  72:source\bsw/button.c ****     
  73:source\bsw/button.c ****     switch (button)
  76              		.loc 1 73 0
  77 0002 10B1     		cbz	r0, .L7
  78 0004 0128     		cmp	r0, #1
  79 0006 06D0     		beq	.L8
  80 0008 0BE0     		b	.L12
  81              	.L7:
  74:source\bsw/button.c ****     {
  75:source\bsw/button.c ****         case BUTTON_1 : if (BUTTON_1_Read() == 1) result = TRUE; break;
  82              		.loc 1 75 0
  83 000a FFF7FEFF 		bl	BUTTON_1_Read
  84              	.LVL6:
  85 000e 0128     		cmp	r0, #1
  86 0010 09D0     		beq	.L10
  71:source\bsw/button.c ****     boolean_t result = FALSE;
  87              		.loc 1 71 0
  88 0012 0020     		movs	r0, #0
  89 0014 08BD     		pop	{r3, pc}
  90              	.LVL7:
  91              	.L8:
  76:source\bsw/button.c ****         case BUTTON_2 : if (BUTTON_2_Read() == 1) result = TRUE; break;
  92              		.loc 1 76 0
  93 0016 FFF7FEFF 		bl	BUTTON_2_Read
ARM GAS  C:\Users\giris\AppData\Local\Temp\ccqzSR0n.s 			page 4


  94              	.LVL8:
  95 001a 0128     		cmp	r0, #1
  96 001c 05D0     		beq	.L11
  71:source\bsw/button.c ****     boolean_t result = FALSE;
  97              		.loc 1 71 0
  98 001e 0020     		movs	r0, #0
  99 0020 08BD     		pop	{r3, pc}
 100              	.LVL9:
 101              	.L12:
 102 0022 0020     		movs	r0, #0
 103              	.LVL10:
 104 0024 08BD     		pop	{r3, pc}
 105              	.L10:
  75:source\bsw/button.c ****         case BUTTON_2 : if (BUTTON_2_Read() == 1) result = TRUE; break;
 106              		.loc 1 75 0
 107 0026 0120     		movs	r0, #1
 108 0028 08BD     		pop	{r3, pc}
 109              	.L11:
 110              		.loc 1 76 0
 111 002a 0120     		movs	r0, #1
 112              	.LVL11:
  77:source\bsw/button.c ****     }
  78:source\bsw/button.c ****     
  79:source\bsw/button.c ****     return result; 
  80:source\bsw/button.c **** }
 113              		.loc 1 80 0
 114 002c 08BD     		pop	{r3, pc}
 115              		.cfi_endproc
 116              	.LFE111:
 117              		.size	BUTTON_IsPressed, .-BUTTON_IsPressed
 118 002e 00BF     		.text
 119              	.Letext0:
 120              		.file 2 "source\\bsw\\global.h"
 121              		.file 3 "c:\\program files (x86)\\cypress\\psoc creator\\4.4\\psoc creator\\import\\gnu\\arm\\5.4.
 122              		.file 4 "c:\\program files (x86)\\cypress\\psoc creator\\4.4\\psoc creator\\import\\gnu\\arm\\5.4.
 123              		.file 5 "Generated_Source\\PSoC5/cytypes.h"
 124              		.file 6 "Generated_Source\\PSoC5/ErikaOS_1_common_ee_types.inc"
 125              		.file 7 "Generated_Source\\PSoC5/ErikaOS_1_cortex_mx_ee_cpu.inc"
 126              		.file 8 "source\\bsw\\button.h"
 127              		.file 9 "Generated_Source\\PSoC5/ErikaOS_1_ee_oo_intfunc.inc"
 128              		.file 10 "Generated_Source\\PSoC5/ErikaOS_1_cortex_mx_ee_context.inc"
 129              		.file 11 "Generated_Source\\PSoC5/ErikaOS_1_common_ee_primitives.inc"
 130              		.file 12 "Generated_Source\\PSoC5/core_cm3.h"
 131              		.file 13 "Generated_Source\\PSoC5/isr_button.h"
 132              		.file 14 "Generated_Source\\PSoC5/BUTTON_1.h"
 133              		.file 15 "Generated_Source\\PSoC5/BUTTON_2.h"