ARM GAS  C:\Users\giris\AppData\Local\Temp\ccwQIaMu.s 			page 1


   1              		.syntax unified
   2              		.cpu cortex-m3
   3              		.fpu softvfp
   4              		.eabi_attribute 20, 1
   5              		.eabi_attribute 21, 1
   6              		.eabi_attribute 23, 3
   7              		.eabi_attribute 24, 1
   8              		.eabi_attribute 25, 1
   9              		.eabi_attribute 26, 1
  10              		.eabi_attribute 30, 1
  11              		.eabi_attribute 34, 1
  12              		.eabi_attribute 18, 4
  13              		.thumb
  14              		.syntax unified
  15              		.file	"fader.c"
  16              		.text
  17              	.Ltext0:
  18              		.cfi_sections	.debug_frame
  19              		.section	.text.Fader_Set,"ax",%progbits
  20              		.align	2
  21              		.global	Fader_Set
  22              		.thumb
  23              		.thumb_func
  24              		.type	Fader_Set, %function
  25              	Fader_Set:
  26              	.LFB110:
  27              		.file 1 "source\\bsw\\fader.c"
   1:source\bsw/fader.c **** /**
   2:source\bsw/fader.c **** * \file <filename>
   3:source\bsw/fader.c **** * \author <author-name>
   4:source\bsw/fader.c **** * \date <date>
   5:source\bsw/fader.c **** *
   6:source\bsw/fader.c **** * \brief <Symbolic File name>
   7:source\bsw/fader.c **** *
   8:source\bsw/fader.c **** * \copyright Copyright ©2016
   9:source\bsw/fader.c **** * Department of electrical engineering and information technology, Hochschule Darmstadt - Universit
  10:source\bsw/fader.c **** * Permission to use, copy, modify, and distribute this software and its documentation for education
  11:source\bsw/fader.c **** * (unless permitted by h_da) and official h_da projects, is hereby granted for enrolled students of
  12:source\bsw/fader.c **** * this paragraph and the following paragraph appear in all copies, modifications, and distributions
  13:source\bsw/fader.c **** * Contact Prof.Dr.-Ing. Peter Fromm, peter.fromm@h-da.de, Birkenweg 8 64295 Darmstadt - GERMANY for
  14:source\bsw/fader.c **** *
  15:source\bsw/fader.c **** * \warning This software is a PROTOTYPE version and is not designed or intended for use in producti
  16:source\bsw/fader.c **** * The user represents and warrants that it will NOT use or redistribute the Software for such purpo
  17:source\bsw/fader.c **** * This prototype is for research purposes only. This software is provided "AS IS," without a warran
  18:source\bsw/fader.c **** */
  19:source\bsw/fader.c **** 
  20:source\bsw/fader.c **** /*****************************************************************************/
  21:source\bsw/fader.c **** /* Include files                                                             */
  22:source\bsw/fader.c **** /*****************************************************************************/
  23:source\bsw/fader.c **** #include "fader.h"
  24:source\bsw/fader.c **** #include "project.h"
  25:source\bsw/fader.c **** /*****************************************************************************/
  26:source\bsw/fader.c **** /* Local pre-processor symbols/macros ('#define')                            */
  27:source\bsw/fader.c **** /*****************************************************************************/
  28:source\bsw/fader.c **** 
  29:source\bsw/fader.c **** /*****************************************************************************/
  30:source\bsw/fader.c **** /* Global variable definitions (declared in header file with 'extern')       */
ARM GAS  C:\Users\giris\AppData\Local\Temp\ccwQIaMu.s 			page 2


  31:source\bsw/fader.c **** /*****************************************************************************/
  32:source\bsw/fader.c **** 
  33:source\bsw/fader.c **** /*****************************************************************************/
  34:source\bsw/fader.c **** /* Local type definitions ('typedef')                                        */
  35:source\bsw/fader.c **** /*****************************************************************************/
  36:source\bsw/fader.c **** 
  37:source\bsw/fader.c **** /*****************************************************************************/
  38:source\bsw/fader.c **** /* Local variable definitions ('static')                                     */
  39:source\bsw/fader.c **** /*****************************************************************************/
  40:source\bsw/fader.c **** 
  41:source\bsw/fader.c **** /*****************************************************************************/
  42:source\bsw/fader.c **** /* Local function prototypes ('static')                                      */
  43:source\bsw/fader.c **** /*****************************************************************************/
  44:source\bsw/fader.c **** 
  45:source\bsw/fader.c **** 
  46:source\bsw/fader.c **** /*****************************************************************************/
  47:source\bsw/fader.c **** /* Function implementation - global ('extern') and local ('static')          */
  48:source\bsw/fader.c **** /*****************************************************************************/
  49:source\bsw/fader.c **** const static uint16 LED__Pulse_Width[256] = {
  50:source\bsw/fader.c ****     0, 1, 1, 1, 1, 1, 1, 1, 1, 2, 2, 2, 2, 2, 2, 2, 2, 2, 2, 2, 2, 3,
  51:source\bsw/fader.c ****     3, 3, 3, 3, 3, 3, 4, 4, 4, 4, 4, 4, 5, 5, 5, 5, 5, 6, 6, 6, 6, 7,
  52:source\bsw/fader.c ****     7, 7, 8, 8, 8, 9, 9, 10, 10, 10, 11, 11, 12, 12, 13, 13, 14, 15,
  53:source\bsw/fader.c ****     15, 16, 17, 17, 18, 19, 20, 21, 22, 23, 24, 25, 26, 27, 28, 29,
  54:source\bsw/fader.c ****     31, 32, 33, 35, 36, 38, 40, 41, 43, 45, 47, 49, 52, 54, 56, 59,
  55:source\bsw/fader.c ****     61, 64, 67, 70, 73, 76, 79, 83, 87, 91, 95, 99, 103, 108, 112,
  56:source\bsw/fader.c ****     117, 123, 128, 134, 140, 146, 152, 159, 166, 173, 181, 189, 197,
  57:source\bsw/fader.c ****     206, 215, 225, 235, 245, 256, 267, 279, 292, 304, 318, 332, 347,
  58:source\bsw/fader.c ****     362, 378, 395, 412, 431, 450, 470, 490, 512, 535, 558, 583, 609,
  59:source\bsw/fader.c ****     636, 664, 693, 724, 756, 790, 825, 861, 899, 939, 981, 1024, 1069,
  60:source\bsw/fader.c ****     1117, 1166, 1218, 1272, 1328, 1387, 1448, 1512, 1579, 1649, 1722,
  61:source\bsw/fader.c ****     1798, 1878, 1961, 2048, 2139, 2233, 2332, 2435, 2543, 2656, 2773,
  62:source\bsw/fader.c ****     2896, 3025, 3158, 3298, 3444, 3597, 3756, 3922, 4096, 4277, 4467,
  63:source\bsw/fader.c ****     4664, 4871, 5087, 5312, 5547, 5793, 6049, 6317, 6596, 6889, 7194,
  64:source\bsw/fader.c ****     7512, 7845, 8192, 8555, 8933, 9329, 9742, 10173, 10624, 11094,
  65:source\bsw/fader.c ****     11585, 12098, 12634, 13193, 13777, 14387, 15024, 15689, 16384,
  66:source\bsw/fader.c ****     17109, 17867, 18658, 19484, 20346, 21247, 22188, 23170, 24196,
  67:source\bsw/fader.c ****     25267, 26386, 27554, 28774, 30048, 31378, 32768, 34218, 35733,
  68:source\bsw/fader.c ****     37315, 38967, 40693, 42494, 44376, 46340, 48392, 50534, 52772,
  69:source\bsw/fader.c ****     55108, 57548, 60096, 62757, 65535
  70:source\bsw/fader.c **** };
  71:source\bsw/fader.c **** 
  72:source\bsw/fader.c **** /*****************************************************************************/
  73:source\bsw/fader.c **** /* Function implementation - global ('extern') and local ('static')          */
  74:source\bsw/fader.c **** /*****************************************************************************/
  75:source\bsw/fader.c **** 
  76:source\bsw/fader.c **** /**
  77:source\bsw/fader.c ****  * This function performs the operation to sequence the RED, YELLOW, BLUE sequence in a Fader Patte
  78:source\bsw/fader.c ****  * @param none
  79:source\bsw/fader.c ****  * @return RC_SUCCESS if ok.
  80:source\bsw/fader.c ****  */
  81:source\bsw/fader.c **** RC_t Fader_Set()
  82:source\bsw/fader.c **** {
  28              		.loc 1 82 0
  29              		.cfi_startproc
  30              		@ args = 0, pretend = 0, frame = 0
  31              		@ frame_needed = 0, uses_anonymous_args = 0
  32 0000 38B5     		push	{r3, r4, r5, lr}
ARM GAS  C:\Users\giris\AppData\Local\Temp\ccwQIaMu.s 			page 3


  33              		.cfi_def_cfa_offset 16
  34              		.cfi_offset 3, -16
  35              		.cfi_offset 4, -12
  36              		.cfi_offset 5, -8
  37              		.cfi_offset 14, -4
  83:source\bsw/fader.c ****     static uint16_t Fader__Brightness = 0;
  84:source\bsw/fader.c ****     Fader__Brightness++;
  38              		.loc 1 84 0
  39 0002 2B4A     		ldr	r2, .L7
  40 0004 1388     		ldrh	r3, [r2]
  41 0006 0133     		adds	r3, r3, #1
  42 0008 9BB2     		uxth	r3, r3
  43 000a 1380     		strh	r3, [r2]	@ movhi
  85:source\bsw/fader.c ****     
  86:source\bsw/fader.c ****     if(Fader__Brightness >= 0 && Fader__Brightness < 255)
  44              		.loc 1 86 0
  45 000c FE2B     		cmp	r3, #254
  46 000e 13D8     		bhi	.L2
  87:source\bsw/fader.c ****     {
  88:source\bsw/fader.c ****         PWM_Led_Red_Start();
  47              		.loc 1 88 0
  48 0010 FFF7FEFF 		bl	PWM_Led_Red_Start
  49              	.LVL0:
  89:source\bsw/fader.c ****         PWM_Led_Red_WriteCompare(LED__Pulse_Width[Fader__Brightness]); //0 to 255
  50              		.loc 1 89 0
  51 0014 274C     		ldr	r4, .L7+4
  52 0016 264D     		ldr	r5, .L7
  53 0018 2B88     		ldrh	r3, [r5]
  54 001a 14F81300 		ldrb	r0, [r4, r3, lsl #1]	@ zero_extendqisi2
  55 001e FFF7FEFF 		bl	PWM_Led_Red_WriteCompare
  56              	.LVL1:
  90:source\bsw/fader.c ****         PWM_Led_Yellow_WriteCompare(0);
  57              		.loc 1 90 0
  58 0022 0020     		movs	r0, #0
  59 0024 FFF7FEFF 		bl	PWM_Led_Yellow_WriteCompare
  60              	.LVL2:
  91:source\bsw/fader.c ****         PWM_Led_Green_WriteCompare(LED__Pulse_Width[(255 - Fader__Brightness)]); //255 to 0
  61              		.loc 1 91 0
  62 0028 2B88     		ldrh	r3, [r5]
  63 002a C3F1FF03 		rsb	r3, r3, #255
  64 002e 14F81300 		ldrb	r0, [r4, r3, lsl #1]	@ zero_extendqisi2
  65 0032 FFF7FEFF 		bl	PWM_Led_Green_WriteCompare
  66              	.LVL3:
  67 0036 38E0     		b	.L3
  68              	.L2:
  92:source\bsw/fader.c ****     }
  93:source\bsw/fader.c ****     else if(Fader__Brightness >= 255 && Fader__Brightness < 510)
  69              		.loc 1 93 0
  70 0038 A3F1FF02 		sub	r2, r3, #255
  71 003c 92B2     		uxth	r2, r2
  72 003e FE2A     		cmp	r2, #254
  73 0040 14D8     		bhi	.L4
  94:source\bsw/fader.c ****     {
  95:source\bsw/fader.c ****         PWM_Led_Yellow_Start();
  74              		.loc 1 95 0
  75 0042 FFF7FEFF 		bl	PWM_Led_Yellow_Start
  76              	.LVL4:
ARM GAS  C:\Users\giris\AppData\Local\Temp\ccwQIaMu.s 			page 4


  96:source\bsw/fader.c ****         PWM_Led_Red_WriteCompare(LED__Pulse_Width[(510 - Fader__Brightness)]); //255 to 0
  77              		.loc 1 96 0
  78 0046 1A4D     		ldr	r5, .L7
  79 0048 2B88     		ldrh	r3, [r5]
  80 004a C3F5FF73 		rsb	r3, r3, #510
  81 004e 194C     		ldr	r4, .L7+4
  82 0050 14F81300 		ldrb	r0, [r4, r3, lsl #1]	@ zero_extendqisi2
  83 0054 FFF7FEFF 		bl	PWM_Led_Red_WriteCompare
  84              	.LVL5:
  97:source\bsw/fader.c ****         PWM_Led_Yellow_WriteCompare(LED__Pulse_Width[(Fader__Brightness - 255)]); //0 to 255
  85              		.loc 1 97 0
  86 0058 2B88     		ldrh	r3, [r5]
  87 005a FF3B     		subs	r3, r3, #255
  88 005c 14F81300 		ldrb	r0, [r4, r3, lsl #1]	@ zero_extendqisi2
  89 0060 FFF7FEFF 		bl	PWM_Led_Yellow_WriteCompare
  90              	.LVL6:
  98:source\bsw/fader.c ****         PWM_Led_Green_WriteCompare(0);
  91              		.loc 1 98 0
  92 0064 0020     		movs	r0, #0
  93 0066 FFF7FEFF 		bl	PWM_Led_Green_WriteCompare
  94              	.LVL7:
  95 006a 1EE0     		b	.L3
  96              	.L4:
  99:source\bsw/fader.c ****     }
 100:source\bsw/fader.c ****     else if(Fader__Brightness >= 510 && Fader__Brightness < 765)
  97              		.loc 1 100 0
  98 006c A3F5FF73 		sub	r3, r3, #510
  99 0070 9BB2     		uxth	r3, r3
 100 0072 FE2B     		cmp	r3, #254
 101 0074 16D8     		bhi	.L5
 101:source\bsw/fader.c ****     {
 102:source\bsw/fader.c ****         PWM_Led_Green_Start();
 102              		.loc 1 102 0
 103 0076 FFF7FEFF 		bl	PWM_Led_Green_Start
 104              	.LVL8:
 103:source\bsw/fader.c ****         PWM_Led_Red_WriteCompare(0);
 105              		.loc 1 103 0
 106 007a 0020     		movs	r0, #0
 107 007c FFF7FEFF 		bl	PWM_Led_Red_WriteCompare
 108              	.LVL9:
 104:source\bsw/fader.c ****         PWM_Led_Yellow_WriteCompare(LED__Pulse_Width[(765 - Fader__Brightness)]); //255 to 0
 109              		.loc 1 104 0
 110 0080 0B4D     		ldr	r5, .L7
 111 0082 2B88     		ldrh	r3, [r5]
 112 0084 C3F53F73 		rsb	r3, r3, #764
 113 0088 0133     		adds	r3, r3, #1
 114 008a 0A4C     		ldr	r4, .L7+4
 115 008c 14F81300 		ldrb	r0, [r4, r3, lsl #1]	@ zero_extendqisi2
 116 0090 FFF7FEFF 		bl	PWM_Led_Yellow_WriteCompare
 117              	.LVL10:
 105:source\bsw/fader.c ****         PWM_Led_Green_WriteCompare(LED__Pulse_Width[(Fader__Brightness - 510)]); //0 to 255
 118              		.loc 1 105 0
 119 0094 2B88     		ldrh	r3, [r5]
 120 0096 A3F5FF73 		sub	r3, r3, #510
 121 009a 14F81300 		ldrb	r0, [r4, r3, lsl #1]	@ zero_extendqisi2
 122 009e FFF7FEFF 		bl	PWM_Led_Green_WriteCompare
 123              	.LVL11:
ARM GAS  C:\Users\giris\AppData\Local\Temp\ccwQIaMu.s 			page 5


 124 00a2 02E0     		b	.L3
 125              	.L5:
 106:source\bsw/fader.c ****     }
 107:source\bsw/fader.c ****     else
 108:source\bsw/fader.c ****     {
 109:source\bsw/fader.c ****         Fader__Brightness = 0;
 126              		.loc 1 109 0
 127 00a4 0022     		movs	r2, #0
 128 00a6 024B     		ldr	r3, .L7
 129 00a8 1A80     		strh	r2, [r3]	@ movhi
 130              	.L3:
 110:source\bsw/fader.c ****     }
 111:source\bsw/fader.c ****     
 112:source\bsw/fader.c ****     return RC_SUCCESS;
 113:source\bsw/fader.c **** }
 131              		.loc 1 113 0
 132 00aa 0020     		movs	r0, #0
 133 00ac 38BD     		pop	{r3, r4, r5, pc}
 134              	.L8:
 135 00ae 00BF     		.align	2
 136              	.L7:
 137 00b0 00000000 		.word	.LANCHOR0
 138 00b4 00000000 		.word	.LANCHOR1
 139              		.cfi_endproc
 140              	.LFE110:
 141              		.size	Fader_Set, .-Fader_Set
 142              		.section	.rodata
 143              		.align	2
 144              		.set	.LANCHOR1,. + 0
 145              		.type	LED__Pulse_Width, %object
 146              		.size	LED__Pulse_Width, 512
 147              	LED__Pulse_Width:
 148 0000 0000     		.short	0
 149 0002 0100     		.short	1
 150 0004 0100     		.short	1
 151 0006 0100     		.short	1
 152 0008 0100     		.short	1
 153 000a 0100     		.short	1
 154 000c 0100     		.short	1
 155 000e 0100     		.short	1
 156 0010 0100     		.short	1
 157 0012 0200     		.short	2
 158 0014 0200     		.short	2
 159 0016 0200     		.short	2
 160 0018 0200     		.short	2
 161 001a 0200     		.short	2
 162 001c 0200     		.short	2
 163 001e 0200     		.short	2
 164 0020 0200     		.short	2
 165 0022 0200     		.short	2
 166 0024 0200     		.short	2
 167 0026 0200     		.short	2
 168 0028 0200     		.short	2
 169 002a 0300     		.short	3
 170 002c 0300     		.short	3
 171 002e 0300     		.short	3
 172 0030 0300     		.short	3
ARM GAS  C:\Users\giris\AppData\Local\Temp\ccwQIaMu.s 			page 6


 173 0032 0300     		.short	3
 174 0034 0300     		.short	3
 175 0036 0300     		.short	3
 176 0038 0400     		.short	4
 177 003a 0400     		.short	4
 178 003c 0400     		.short	4
 179 003e 0400     		.short	4
 180 0040 0400     		.short	4
 181 0042 0400     		.short	4
 182 0044 0500     		.short	5
 183 0046 0500     		.short	5
 184 0048 0500     		.short	5
 185 004a 0500     		.short	5
 186 004c 0500     		.short	5
 187 004e 0600     		.short	6
 188 0050 0600     		.short	6
 189 0052 0600     		.short	6
 190 0054 0600     		.short	6
 191 0056 0700     		.short	7
 192 0058 0700     		.short	7
 193 005a 0700     		.short	7
 194 005c 0800     		.short	8
 195 005e 0800     		.short	8
 196 0060 0800     		.short	8
 197 0062 0900     		.short	9
 198 0064 0900     		.short	9
 199 0066 0A00     		.short	10
 200 0068 0A00     		.short	10
 201 006a 0A00     		.short	10
 202 006c 0B00     		.short	11
 203 006e 0B00     		.short	11
 204 0070 0C00     		.short	12
 205 0072 0C00     		.short	12
 206 0074 0D00     		.short	13
 207 0076 0D00     		.short	13
 208 0078 0E00     		.short	14
 209 007a 0F00     		.short	15
 210 007c 0F00     		.short	15
 211 007e 1000     		.short	16
 212 0080 1100     		.short	17
 213 0082 1100     		.short	17
 214 0084 1200     		.short	18
 215 0086 1300     		.short	19
 216 0088 1400     		.short	20
 217 008a 1500     		.short	21
 218 008c 1600     		.short	22
 219 008e 1700     		.short	23
 220 0090 1800     		.short	24
 221 0092 1900     		.short	25
 222 0094 1A00     		.short	26
 223 0096 1B00     		.short	27
 224 0098 1C00     		.short	28
 225 009a 1D00     		.short	29
 226 009c 1F00     		.short	31
 227 009e 2000     		.short	32
 228 00a0 2100     		.short	33
 229 00a2 2300     		.short	35
ARM GAS  C:\Users\giris\AppData\Local\Temp\ccwQIaMu.s 			page 7


 230 00a4 2400     		.short	36
 231 00a6 2600     		.short	38
 232 00a8 2800     		.short	40
 233 00aa 2900     		.short	41
 234 00ac 2B00     		.short	43
 235 00ae 2D00     		.short	45
 236 00b0 2F00     		.short	47
 237 00b2 3100     		.short	49
 238 00b4 3400     		.short	52
 239 00b6 3600     		.short	54
 240 00b8 3800     		.short	56
 241 00ba 3B00     		.short	59
 242 00bc 3D00     		.short	61
 243 00be 4000     		.short	64
 244 00c0 4300     		.short	67
 245 00c2 4600     		.short	70
 246 00c4 4900     		.short	73
 247 00c6 4C00     		.short	76
 248 00c8 4F00     		.short	79
 249 00ca 5300     		.short	83
 250 00cc 5700     		.short	87
 251 00ce 5B00     		.short	91
 252 00d0 5F00     		.short	95
 253 00d2 6300     		.short	99
 254 00d4 6700     		.short	103
 255 00d6 6C00     		.short	108
 256 00d8 7000     		.short	112
 257 00da 7500     		.short	117
 258 00dc 7B00     		.short	123
 259 00de 8000     		.short	128
 260 00e0 8600     		.short	134
 261 00e2 8C00     		.short	140
 262 00e4 9200     		.short	146
 263 00e6 9800     		.short	152
 264 00e8 9F00     		.short	159
 265 00ea A600     		.short	166
 266 00ec AD00     		.short	173
 267 00ee B500     		.short	181
 268 00f0 BD00     		.short	189
 269 00f2 C500     		.short	197
 270 00f4 CE00     		.short	206
 271 00f6 D700     		.short	215
 272 00f8 E100     		.short	225
 273 00fa EB00     		.short	235
 274 00fc F500     		.short	245
 275 00fe 0001     		.short	256
 276 0100 0B01     		.short	267
 277 0102 1701     		.short	279
 278 0104 2401     		.short	292
 279 0106 3001     		.short	304
 280 0108 3E01     		.short	318
 281 010a 4C01     		.short	332
 282 010c 5B01     		.short	347
 283 010e 6A01     		.short	362
 284 0110 7A01     		.short	378
 285 0112 8B01     		.short	395
 286 0114 9C01     		.short	412
ARM GAS  C:\Users\giris\AppData\Local\Temp\ccwQIaMu.s 			page 8


 287 0116 AF01     		.short	431
 288 0118 C201     		.short	450
 289 011a D601     		.short	470
 290 011c EA01     		.short	490
 291 011e 0002     		.short	512
 292 0120 1702     		.short	535
 293 0122 2E02     		.short	558
 294 0124 4702     		.short	583
 295 0126 6102     		.short	609
 296 0128 7C02     		.short	636
 297 012a 9802     		.short	664
 298 012c B502     		.short	693
 299 012e D402     		.short	724
 300 0130 F402     		.short	756
 301 0132 1603     		.short	790
 302 0134 3903     		.short	825
 303 0136 5D03     		.short	861
 304 0138 8303     		.short	899
 305 013a AB03     		.short	939
 306 013c D503     		.short	981
 307 013e 0004     		.short	1024
 308 0140 2D04     		.short	1069
 309 0142 5D04     		.short	1117
 310 0144 8E04     		.short	1166
 311 0146 C204     		.short	1218
 312 0148 F804     		.short	1272
 313 014a 3005     		.short	1328
 314 014c 6B05     		.short	1387
 315 014e A805     		.short	1448
 316 0150 E805     		.short	1512
 317 0152 2B06     		.short	1579
 318 0154 7106     		.short	1649
 319 0156 BA06     		.short	1722
 320 0158 0607     		.short	1798
 321 015a 5607     		.short	1878
 322 015c A907     		.short	1961
 323 015e 0008     		.short	2048
 324 0160 5B08     		.short	2139
 325 0162 B908     		.short	2233
 326 0164 1C09     		.short	2332
 327 0166 8309     		.short	2435
 328 0168 EF09     		.short	2543
 329 016a 600A     		.short	2656
 330 016c D50A     		.short	2773
 331 016e 500B     		.short	2896
 332 0170 D10B     		.short	3025
 333 0172 560C     		.short	3158
 334 0174 E20C     		.short	3298
 335 0176 740D     		.short	3444
 336 0178 0D0E     		.short	3597
 337 017a AC0E     		.short	3756
 338 017c 520F     		.short	3922
 339 017e 0010     		.short	4096
 340 0180 B510     		.short	4277
 341 0182 7311     		.short	4467
 342 0184 3812     		.short	4664
 343 0186 0713     		.short	4871
ARM GAS  C:\Users\giris\AppData\Local\Temp\ccwQIaMu.s 			page 9


 344 0188 DF13     		.short	5087
 345 018a C014     		.short	5312
 346 018c AB15     		.short	5547
 347 018e A116     		.short	5793
 348 0190 A117     		.short	6049
 349 0192 AD18     		.short	6317
 350 0194 C419     		.short	6596
 351 0196 E91A     		.short	6889
 352 0198 1A1C     		.short	7194
 353 019a 581D     		.short	7512
 354 019c A51E     		.short	7845
 355 019e 0020     		.short	8192
 356 01a0 6B21     		.short	8555
 357 01a2 E522     		.short	8933
 358 01a4 7124     		.short	9329
 359 01a6 0E26     		.short	9742
 360 01a8 BD27     		.short	10173
 361 01aa 8029     		.short	10624
 362 01ac 562B     		.short	11094
 363 01ae 412D     		.short	11585
 364 01b0 422F     		.short	12098
 365 01b2 5A31     		.short	12634
 366 01b4 8933     		.short	13193
 367 01b6 D135     		.short	13777
 368 01b8 3338     		.short	14387
 369 01ba B03A     		.short	15024
 370 01bc 493D     		.short	15689
 371 01be 0040     		.short	16384
 372 01c0 D542     		.short	17109
 373 01c2 CB45     		.short	17867
 374 01c4 E248     		.short	18658
 375 01c6 1C4C     		.short	19484
 376 01c8 7A4F     		.short	20346
 377 01ca FF52     		.short	21247
 378 01cc AC56     		.short	22188
 379 01ce 825A     		.short	23170
 380 01d0 845E     		.short	24196
 381 01d2 B362     		.short	25267
 382 01d4 1267     		.short	26386
 383 01d6 A26B     		.short	27554
 384 01d8 6670     		.short	28774
 385 01da 6075     		.short	30048
 386 01dc 927A     		.short	31378
 387 01de 0080     		.short	-32768
 388 01e0 AA85     		.short	-31318
 389 01e2 958B     		.short	-29803
 390 01e4 C391     		.short	-28221
 391 01e6 3798     		.short	-26569
 392 01e8 F59E     		.short	-24843
 393 01ea FEA5     		.short	-23042
 394 01ec 58AD     		.short	-21160
 395 01ee 04B5     		.short	-19196
 396 01f0 08BD     		.short	-17144
 397 01f2 66C5     		.short	-15002
 398 01f4 24CE     		.short	-12764
 399 01f6 44D7     		.short	-10428
 400 01f8 CCE0     		.short	-7988
ARM GAS  C:\Users\giris\AppData\Local\Temp\ccwQIaMu.s 			page 10


 401 01fa C0EA     		.short	-5440
 402 01fc 25F5     		.short	-2779
 403 01fe FFFF     		.short	-1
 404              		.bss
 405              		.align	1
 406              		.set	.LANCHOR0,. + 0
 407              		.type	Fader__Brightness.6532, %object
 408              		.size	Fader__Brightness.6532, 2
 409              	Fader__Brightness.6532:
 410 0000 0000     		.space	2
 411              		.text
 412              	.Letext0:
 413              		.file 2 "source\\bsw\\global.h"
 414              		.file 3 "c:\\program files (x86)\\cypress\\psoc creator\\4.4\\psoc creator\\import\\gnu\\arm\\5.4.
 415              		.file 4 "c:\\program files (x86)\\cypress\\psoc creator\\4.4\\psoc creator\\import\\gnu\\arm\\5.4.
 416              		.file 5 "Generated_Source\\PSoC5/cytypes.h"
 417              		.file 6 "Generated_Source\\PSoC5/ErikaOS_1_common_ee_types.inc"
 418              		.file 7 "Generated_Source\\PSoC5/ErikaOS_1_cortex_mx_ee_cpu.inc"
 419              		.file 8 "Generated_Source\\PSoC5/ErikaOS_1_ee_oo_intfunc.inc"
 420              		.file 9 "Generated_Source\\PSoC5/ErikaOS_1_cortex_mx_ee_context.inc"
 421              		.file 10 "Generated_Source\\PSoC5/ErikaOS_1_common_ee_primitives.inc"
 422              		.file 11 "Generated_Source\\PSoC5/core_cm3.h"
 423              		.file 12 "Generated_Source\\PSoC5/PWM_Led_Red.h"
 424              		.file 13 "Generated_Source\\PSoC5/PWM_Led_Yellow.h"
 425              		.file 14 "Generated_Source\\PSoC5/PWM_Led_Green.h"