ARM GAS  C:\Users\giris\AppData\Local\Temp\ccLipuO9.s 			page 1


   1              		.syntax unified
   2              		.cpu cortex-m3
   3              		.fpu softvfp
   4              		.eabi_attribute 20, 1
   5              		.eabi_attribute 21, 1
   6              		.eabi_attribute 23, 3
   7              		.eabi_attribute 24, 1
   8              		.eabi_attribute 25, 1
   9              		.eabi_attribute 26, 1
  10              		.eabi_attribute 30, 1
  11              		.eabi_attribute 34, 1
  12              		.eabi_attribute 18, 4
  13              		.thumb
  14              		.syntax unified
  15              		.file	"game.c"
  16              		.text
  17              	.Ltext0:
  18              		.cfi_sections	.debug_frame
  19              		.section	.text.GAME__StartRandomTimer,"ax",%progbits
  20              		.align	2
  21              		.global	GAME__StartRandomTimer
  22              		.thumb
  23              		.thumb_func
  24              		.type	GAME__StartRandomTimer, %function
  25              	GAME__StartRandomTimer:
  26              	.LFB111:
  27              		.file 1 "source\\asw\\game.c"
   1:source\asw/game.c **** /**
   2:source\asw/game.c **** * \file <filename>
   3:source\asw/game.c **** * \author <author-name>
   4:source\asw/game.c **** * \date <date>
   5:source\asw/game.c **** *
   6:source\asw/game.c **** * \brief <Symbolic File name>
   7:source\asw/game.c **** *
   8:source\asw/game.c **** * \copyright Copyright ©2016
   9:source\asw/game.c **** * Department of electrical engineering and information technology, Hochschule Darmstadt - Universit
  10:source\asw/game.c **** * Permission to use, copy, modify, and distribute this software and its documentation for education
  11:source\asw/game.c **** * (unless permitted by h_da) and official h_da projects, is hereby granted for enrolled students of
  12:source\asw/game.c **** * this paragraph and the following paragraph appear in all copies, modifications, and distributions
  13:source\asw/game.c **** * Contact Prof.Dr.-Ing. Peter Fromm, peter.fromm@h-da.de, Birkenweg 8 64295 Darmstadt - GERMANY for
  14:source\asw/game.c **** *
  15:source\asw/game.c **** * \warning This software is a PROTOTYPE version and is not designed or intended for use in producti
  16:source\asw/game.c **** * The user represents and warrants that it will NOT use or redistribute the Software for such purpo
  17:source\asw/game.c **** * This prototype is for research purposes only. This software is provided "AS IS," without a warran
  18:source\asw/game.c **** */
  19:source\asw/game.c **** 
  20:source\asw/game.c **** /*****************************************************************************/
  21:source\asw/game.c **** /* Include files                                                             */
  22:source\asw/game.c **** /*****************************************************************************/
  23:source\asw/game.c **** #include "seven_segment.h"
  24:source\asw/game.c **** #include "game.h"
  25:source\asw/game.c **** 
  26:source\asw/game.c **** #include <stdio.h>
  27:source\asw/game.c **** #include <stdlib.h>
  28:source\asw/game.c **** #include <time.h>
  29:source\asw/game.c **** /*****************************************************************************/
  30:source\asw/game.c **** /* Local pre-processor symbols/macros ('#define')                            */
ARM GAS  C:\Users\giris\AppData\Local\Temp\ccLipuO9.s 			page 2


  31:source\asw/game.c **** /*****************************************************************************/
  32:source\asw/game.c **** 
  33:source\asw/game.c **** /*****************************************************************************/
  34:source\asw/game.c **** /* Global variable definitions (declared in header file with 'extern')       */
  35:source\asw/game.c **** /*****************************************************************************/
  36:source\asw/game.c **** 
  37:source\asw/game.c **** /*****************************************************************************/
  38:source\asw/game.c **** /* Local type definitions ('typedef')                                        */
  39:source\asw/game.c **** /*****************************************************************************/
  40:source\asw/game.c **** 
  41:source\asw/game.c **** typedef enum
  42:source\asw/game.c **** {
  43:source\asw/game.c ****     GAME__ISIDLE,                   /**< Waiting for Button press to start the game. */
  44:source\asw/game.c ****     GAME__ISWAITINGRANDOMTIME,      /**< Waiting for Random time. */
  45:source\asw/game.c ****     GAME__ISWAITINGBUTTON           /**< Waiting for User Button(1/2) press. */
  46:source\asw/game.c **** } GAME__State_t;
  47:source\asw/game.c ****     
  48:source\asw/game.c **** 
  49:source\asw/game.c **** /*****************************************************************************/
  50:source\asw/game.c **** /* Local variable definitions ('static')                                     */
  51:source\asw/game.c **** /*****************************************************************************/
  52:source\asw/game.c **** 
  53:source\asw/game.c **** static GAME__State_t GAME__State = GAME__ISIDLE;
  54:source\asw/game.c **** 
  55:source\asw/game.c **** static uint16_t random_7segment_value = 0;
  56:source\asw/game.c **** 
  57:source\asw/game.c **** char buffer[32];
  58:source\asw/game.c **** 
  59:source\asw/game.c **** /*****************************************************************************/
  60:source\asw/game.c **** /* Local function prototypes ('static')                                      */
  61:source\asw/game.c **** /*****************************************************************************/
  62:source\asw/game.c **** 
  63:source\asw/game.c **** //All state machine action are static functions
  64:source\asw/game.c **** //e.g. GAME__StartRandomTimer
  65:source\asw/game.c **** 
  66:source\asw/game.c **** /*****************************************************************************/
  67:source\asw/game.c **** /* Function implementation - global ('extern') and local ('static')          */
  68:source\asw/game.c **** /*****************************************************************************/
  69:source\asw/game.c **** 
  70:source\asw/game.c **** RC_t GAME__StartRandomTimer(uint16 mintimeInms, uint16 maxtimeInms)
  71:source\asw/game.c **** {
  28              		.loc 1 71 0
  29              		.cfi_startproc
  30              		@ args = 0, pretend = 0, frame = 0
  31              		@ frame_needed = 0, uses_anonymous_args = 0
  32              	.LVL0:
  33 0000 38B5     		push	{r3, r4, r5, lr}
  34              		.cfi_def_cfa_offset 16
  35              		.cfi_offset 3, -16
  36              		.cfi_offset 4, -12
  37              		.cfi_offset 5, -8
  38              		.cfi_offset 14, -4
  39 0002 0546     		mov	r5, r0
  40 0004 0C46     		mov	r4, r1
  72:source\asw/game.c ****     //First get a random number
  73:source\asw/game.c ****     uint32 randomTime = rand() % (maxtimeInms - mintimeInms) + mintimeInms;
  41              		.loc 1 73 0
ARM GAS  C:\Users\giris\AppData\Local\Temp\ccLipuO9.s 			page 3


  42 0006 FFF7FEFF 		bl	rand
  43              	.LVL1:
  44 000a 611B     		subs	r1, r4, r5
  45 000c 90FBF1F3 		sdiv	r3, r0, r1
  46 0010 01FB1300 		mls	r0, r1, r3, r0
  47 0014 2844     		add	r0, r0, r5
  48              	.LVL2:
  74:source\asw/game.c **** //    UART_LOG_PutString("Random time: ");
  75:source\asw/game.c **** //    itoa(randomTime,buffer,10);
  76:source\asw/game.c **** //    UART_LOG_PutString(buffer);
  77:source\asw/game.c **** //    UART_LOG_PutString("\n");
  78:source\asw/game.c ****     //Then set the timout using cydelay
  79:source\asw/game.c ****     //CyDelay(randomTime * 1000);
  80:source\asw/game.c ****     
  81:source\asw/game.c ****     //This alarm fires an event timeout after waiting randomly from 1s-3s. This alarm is called onl
  82:source\asw/game.c ****     SetRelAlarm(alarm_wait3s, randomTime*1000, 0);
  49              		.loc 1 82 0
  50 0016 0022     		movs	r2, #0
  51 0018 4FF47A71 		mov	r1, #1000
  52 001c 01FB00F1 		mul	r1, r1, r0
  53 0020 0220     		movs	r0, #2
  54              	.LVL3:
  55 0022 FFF7FEFF 		bl	EE_oo_SetRelAlarm
  56              	.LVL4:
  83:source\asw/game.c ****     
  84:source\asw/game.c ****     return RC_SUCCESS;
  85:source\asw/game.c **** }
  57              		.loc 1 85 0
  58 0026 0020     		movs	r0, #0
  59 0028 38BD     		pop	{r3, r4, r5, pc}
  60              		.cfi_endproc
  61              	.LFE111:
  62              		.size	GAME__StartRandomTimer, .-GAME__StartRandomTimer
  63 002a 00BF     		.section	.text.GAME__ShowRandom7SegmentValue,"ax",%progbits
  64              		.align	2
  65              		.global	GAME__ShowRandom7SegmentValue
  66              		.thumb
  67              		.thumb_func
  68              		.type	GAME__ShowRandom7SegmentValue, %function
  69              	GAME__ShowRandom7SegmentValue:
  70              	.LFB112:
  86:source\asw/game.c **** 
  87:source\asw/game.c **** RC_t GAME__ShowRandom7SegmentValue()
  88:source\asw/game.c **** {
  71              		.loc 1 88 0
  72              		.cfi_startproc
  73              		@ args = 0, pretend = 0, frame = 0
  74              		@ frame_needed = 0, uses_anonymous_args = 0
  75 0000 10B5     		push	{r4, lr}
  76              		.cfi_def_cfa_offset 8
  77              		.cfi_offset 4, -8
  78              		.cfi_offset 14, -4
  89:source\asw/game.c ****     random_7segment_value = rand()%2;
  79              		.loc 1 89 0
  80 0002 FFF7FEFF 		bl	rand
  81              	.LVL5:
  82 0006 0B49     		ldr	r1, .L6
ARM GAS  C:\Users\giris\AppData\Local\Temp\ccLipuO9.s 			page 4


  83 0008 0840     		ands	r0, r0, r1
  84 000a 03D5     		bpl	.L4
  85 000c 0138     		subs	r0, r0, #1
  86 000e 60F00100 		orn	r0, r0, #1
  87 0012 0130     		adds	r0, r0, #1
  88              	.L4:
  89 0014 80B2     		uxth	r0, r0
  90 0016 084C     		ldr	r4, .L6+4
  91 0018 2080     		strh	r0, [r4]	@ movhi
  90:source\asw/game.c ****     
  91:source\asw/game.c ****     Seven_Segment_Write(Seven_Segment_Left, (random_7segment_value+1));
  92              		.loc 1 91 0
  93 001a 411C     		adds	r1, r0, #1
  94 001c C9B2     		uxtb	r1, r1
  95 001e 0120     		movs	r0, #1
  96 0020 FFF7FEFF 		bl	Seven_Segment_Write
  97              	.LVL6:
  92:source\asw/game.c ****     Seven_Segment_Write(Seven_Segment_Right, (random_7segment_value+1));
  98              		.loc 1 92 0
  99 0024 2178     		ldrb	r1, [r4]	@ zero_extendqisi2
 100 0026 0131     		adds	r1, r1, #1
 101 0028 C9B2     		uxtb	r1, r1
 102 002a 0020     		movs	r0, #0
 103 002c FFF7FEFF 		bl	Seven_Segment_Write
 104              	.LVL7:
  93:source\asw/game.c ****     
  94:source\asw/game.c ****     return RC_SUCCESS;
  95:source\asw/game.c **** }
 105              		.loc 1 95 0
 106 0030 0020     		movs	r0, #0
 107 0032 10BD     		pop	{r4, pc}
 108              	.L7:
 109              		.align	2
 110              	.L6:
 111 0034 01000080 		.word	-2147483647
 112 0038 00000000 		.word	.LANCHOR0
 113              		.cfi_endproc
 114              	.LFE112:
 115              		.size	GAME__ShowRandom7SegmentValue, .-GAME__ShowRandom7SegmentValue
 116              		.section	.text.GAME__CorrectButton,"ax",%progbits
 117              		.align	2
 118              		.global	GAME__CorrectButton
 119              		.thumb
 120              		.thumb_func
 121              		.type	GAME__CorrectButton, %function
 122              	GAME__CorrectButton:
 123              	.LFB113:
  96:source\asw/game.c **** 
  97:source\asw/game.c **** boolean_t GAME__CorrectButton(EventMaskType event_state)
  98:source\asw/game.c **** { 
 124              		.loc 1 98 0
 125              		.cfi_startproc
 126              		@ args = 0, pretend = 0, frame = 0
 127              		@ frame_needed = 0, uses_anonymous_args = 0
 128              		@ link register save eliminated.
 129              	.LVL8:
  99:source\asw/game.c ****     if((random_7segment_value+1) == 2 && event_state & ev_Button1)
ARM GAS  C:\Users\giris\AppData\Local\Temp\ccLipuO9.s 			page 5


 130              		.loc 1 99 0
 131 0000 094B     		ldr	r3, .L14
 132 0002 1B88     		ldrh	r3, [r3]
 133 0004 012B     		cmp	r3, #1
 134 0006 02D1     		bne	.L9
 135              		.loc 1 99 0 is_stmt 0 discriminator 1
 136 0008 10F0010F 		tst	r0, #1
 137 000c 05D1     		bne	.L11
 138              	.L9:
 100:source\asw/game.c ****         return TRUE;
 101:source\asw/game.c ****     else if((random_7segment_value+1) == 1 && event_state & ev_Button2)
 139              		.loc 1 101 0 is_stmt 1
 140 000e 33B9     		cbnz	r3, .L12
 141              		.loc 1 101 0 is_stmt 0 discriminator 1
 142 0010 10F0020F 		tst	r0, #2
 143 0014 05D1     		bne	.L13
 102:source\asw/game.c ****         return TRUE;
 103:source\asw/game.c ****     else
 104:source\asw/game.c ****         return FALSE;
 144              		.loc 1 104 0 is_stmt 1
 145 0016 0020     		movs	r0, #0
 146              	.LVL9:
 147 0018 7047     		bx	lr
 148              	.LVL10:
 149              	.L11:
 100:source\asw/game.c ****         return TRUE;
 150              		.loc 1 100 0
 151 001a 0120     		movs	r0, #1
 152              	.LVL11:
 153 001c 7047     		bx	lr
 154              	.LVL12:
 155              	.L12:
 156              		.loc 1 104 0
 157 001e 0020     		movs	r0, #0
 158              	.LVL13:
 159 0020 7047     		bx	lr
 160              	.LVL14:
 161              	.L13:
 102:source\asw/game.c ****         return TRUE;
 162              		.loc 1 102 0
 163 0022 0120     		movs	r0, #1
 164              	.LVL15:
 105:source\asw/game.c **** }
 165              		.loc 1 105 0
 166 0024 7047     		bx	lr
 167              	.L15:
 168 0026 00BF     		.align	2
 169              	.L14:
 170 0028 00000000 		.word	.LANCHOR0
 171              		.cfi_endproc
 172              	.LFE113:
 173              		.size	GAME__CorrectButton, .-GAME__CorrectButton
 174              		.section	.text.GAME__Show,"ax",%progbits
 175              		.align	2
 176              		.global	GAME__Show
 177              		.thumb
 178              		.thumb_func
ARM GAS  C:\Users\giris\AppData\Local\Temp\ccLipuO9.s 			page 6


 179              		.type	GAME__Show, %function
 180              	GAME__Show:
 181              	.LFB117:
 106:source\asw/game.c **** 
 107:source\asw/game.c **** RC_t GAME__Play(GAME_event_t Game, EventMaskType ev_State)
 108:source\asw/game.c **** {
 109:source\asw/game.c ****     switch (GAME__State)
 110:source\asw/game.c ****     {
 111:source\asw/game.c ****         case GAME__ISIDLE :
 112:source\asw/game.c ****             if (Game == GAME_BUTTON)
 113:source\asw/game.c ****             {
 114:source\asw/game.c ****                 // If the event received is Button, we need to generate random wait time (1s - 3s)
 115:source\asw/game.c ****                 // then set the game state to wait for random time.
 116:source\asw/game.c ****                 GAME__StartRandomTimer(1,3);
 117:source\asw/game.c ****                 GAME__State = GAME__ISWAITINGRANDOMTIME; 
 118:source\asw/game.c ****                 //SetEvent(task_control, ev_Timeout);
 119:source\asw/game.c ****             }
 120:source\asw/game.c ****             break;
 121:source\asw/game.c ****             
 122:source\asw/game.c ****         case GAME__ISWAITINGRANDOMTIME:
 123:source\asw/game.c ****             if (Game == GAME_TIMEOUT)
 124:source\asw/game.c ****             {
 125:source\asw/game.c ****                 // If the game is waiting for randomtime, then we need to show random 7segment valu
 126:source\asw/game.c ****                 // and set the game to user button wait state
 127:source\asw/game.c ****                 CancelAlarm(alarm_wait3s);
 128:source\asw/game.c ****                 GAME__ShowRandom7SegmentValue();
 129:source\asw/game.c ****                 GAME__State = GAME__ISWAITINGBUTTON; 
 130:source\asw/game.c ****                 SetRelAlarm(alarm_wait1s,1000,0);
 131:source\asw/game.c ****                 
 132:source\asw/game.c ****                   temp1 = sys_tick_count;
 133:source\asw/game.c **** //                GAME__Show("temp1 value: ");
 134:source\asw/game.c **** //                itoa(temp1,buffer,10);
 135:source\asw/game.c **** //                UART_LOG_PutString(buffer);
 136:source\asw/game.c **** //                GAME__Show("\n");
 137:source\asw/game.c **** //                
 138:source\asw/game.c **** //                GAME__Show(" sys tick count@7: ");
 139:source\asw/game.c **** //                itoa(sys_tick_count,buffer,10);
 140:source\asw/game.c **** //                UART_LOG_PutString(buffer);
 141:source\asw/game.c **** //                GAME__Show("\n");
 142:source\asw/game.c ****             }
 143:source\asw/game.c ****             break;
 144:source\asw/game.c ****             
 145:source\asw/game.c ****         case GAME__ISWAITINGBUTTON:
 146:source\asw/game.c ****             if (Game == GAME_BUTTON)
 147:source\asw/game.c ****             {
 148:source\asw/game.c ****                 if (GAME__CorrectButton(ev_State))
 149:source\asw/game.c ****                 {
 150:source\asw/game.c ****                     GAME__Show("\nGreat!! - Correct Button Pressed\n");
 151:source\asw/game.c ****                     correct_button_pressed++;
 152:source\asw/game.c ****                     
 153:source\asw/game.c ****                       temp2 = sys_tick_count;
 154:source\asw/game.c **** //                    GAME__Show("temp2 value: ");
 155:source\asw/game.c **** //                    itoa(temp2,buffer,10);
 156:source\asw/game.c **** //                    UART_LOG_PutString(buffer);
 157:source\asw/game.c **** //                    GAME__Show("\n");
 158:source\asw/game.c **** //                    
 159:source\asw/game.c **** //                    GAME__Show(" sys tick count@CB: ");
ARM GAS  C:\Users\giris\AppData\Local\Temp\ccLipuO9.s 			page 7


 160:source\asw/game.c **** //                    itoa(sys_tick_count,buffer,10);
 161:source\asw/game.c **** //                    UART_LOG_PutString(buffer);
 162:source\asw/game.c **** //                    GAME__Show("\n");
 163:source\asw/game.c ****                     
 164:source\asw/game.c ****                     reaction_time = temp2 - temp1;
 165:source\asw/game.c ****                     GAME__Show("Reaction time(ms): ");
 166:source\asw/game.c ****                     itoa(reaction_time,buffer,10);
 167:source\asw/game.c ****                     UART_LOG_PutString(buffer);
 168:source\asw/game.c ****                     GAME__Show("\n");
 169:source\asw/game.c ****                 }
 170:source\asw/game.c ****                 else
 171:source\asw/game.c ****                 {
 172:source\asw/game.c ****                     GAME__Show("\nOopss!! - Wrong Button Pressed\n");
 173:source\asw/game.c ****                 }
 174:source\asw/game.c ****                 GAME__State = GAME__ISIDLE;
 175:source\asw/game.c ****                 CancelAlarm(alarm_wait1s);
 176:source\asw/game.c ****                 
 177:source\asw/game.c ****                 SevenSegmentClear(Seven_Segment_Left);
 178:source\asw/game.c ****                 SevenSegmentClear(Seven_Segment_Right);
 179:source\asw/game.c ****                 
 180:source\asw/game.c ****                 GAME__DisplayResult();
 181:source\asw/game.c ****             }   
 182:source\asw/game.c ****     }
 183:source\asw/game.c ****     return RC_SUCCESS;
 184:source\asw/game.c **** }
 185:source\asw/game.c **** void GAME__DisplayTime()
 186:source\asw/game.c **** {
 187:source\asw/game.c ****     GAME__Show("\n\nEND OF THE GAME\n");
 188:source\asw/game.c ****     GAME__Show("\nBelow are your Reaction Game Results.....\n");
 189:source\asw/game.c ****     GAME__Show("\nFINAL SCORE - Correct number of button pressed is: ");
 190:source\asw/game.c ****     itoa(correct_button_pressed,buffer,10);
 191:source\asw/game.c ****     UART_LOG_PutString(buffer);
 192:source\asw/game.c ****     UART_LOG_PutString("\n");
 193:source\asw/game.c ****     
 194:source\asw/game.c ****     GAME__Show("Total Reaction time of the Game(ms): ");
 195:source\asw/game.c ****     itoa(sys_tick_count,buffer,10);
 196:source\asw/game.c ****     UART_LOG_PutString(buffer);
 197:source\asw/game.c ****     GAME__Show("\n");
 198:source\asw/game.c ****     
 199:source\asw/game.c ****     GAME__Show("Average Reaction time of the Game(ms): ");
 200:source\asw/game.c ****     average_game_time = sys_tick_count/GAME_ROUNDS;
 201:source\asw/game.c ****     itoa(average_game_time,buffer,10);
 202:source\asw/game.c ****     UART_LOG_PutString(buffer);
 203:source\asw/game.c ****     GAME__Show("\n");
 204:source\asw/game.c **** }
 205:source\asw/game.c **** 
 206:source\asw/game.c **** void GAME__DisplayResult()
 207:source\asw/game.c **** {
 208:source\asw/game.c ****     game_rounds++;
 209:source\asw/game.c ****     if(game_rounds <= GAME_ROUNDS)
 210:source\asw/game.c ****     {
 211:source\asw/game.c ****         GAME__Show("\nReaction test program ROUND ");
 212:source\asw/game.c ****         itoa(game_rounds,buffer,10);
 213:source\asw/game.c ****         UART_LOG_PutString(buffer);
 214:source\asw/game.c ****         UART_LOG_PutString("\n");
 215:source\asw/game.c ****         GAME__Show("Press one of the two buttons to start the round...\n");
 216:source\asw/game.c ****     }
ARM GAS  C:\Users\giris\AppData\Local\Temp\ccLipuO9.s 			page 8


 217:source\asw/game.c **** }
 218:source\asw/game.c **** void GAME__Show(char str [])
 219:source\asw/game.c **** {
 182              		.loc 1 219 0
 183              		.cfi_startproc
 184              		@ args = 0, pretend = 0, frame = 0
 185              		@ frame_needed = 0, uses_anonymous_args = 0
 186              	.LVL16:
 187 0000 08B5     		push	{r3, lr}
 188              		.cfi_def_cfa_offset 8
 189              		.cfi_offset 3, -8
 190              		.cfi_offset 14, -4
 220:source\asw/game.c ****     UART_LOG_PutString(str);
 191              		.loc 1 220 0
 192 0002 FFF7FEFF 		bl	UART_LOG_PutString
 193              	.LVL17:
 194 0006 08BD     		pop	{r3, pc}
 195              		.cfi_endproc
 196              	.LFE117:
 197              		.size	GAME__Show, .-GAME__Show
 198              		.section	.text.GAME__DisplayTime,"ax",%progbits
 199              		.align	2
 200              		.global	GAME__DisplayTime
 201              		.thumb
 202              		.thumb_func
 203              		.type	GAME__DisplayTime, %function
 204              	GAME__DisplayTime:
 205              	.LFB115:
 186:source\asw/game.c ****     GAME__Show("\n\nEND OF THE GAME\n");
 206              		.loc 1 186 0
 207              		.cfi_startproc
 208              		@ args = 0, pretend = 0, frame = 0
 209              		@ frame_needed = 0, uses_anonymous_args = 0
 210 0000 70B5     		push	{r4, r5, r6, lr}
 211              		.cfi_def_cfa_offset 16
 212              		.cfi_offset 4, -16
 213              		.cfi_offset 5, -12
 214              		.cfi_offset 6, -8
 215              		.cfi_offset 14, -4
 187:source\asw/game.c ****     GAME__Show("\nBelow are your Reaction Game Results.....\n");
 216              		.loc 1 187 0
 217 0002 2048     		ldr	r0, .L20
 218 0004 FFF7FEFF 		bl	GAME__Show
 219              	.LVL18:
 188:source\asw/game.c ****     GAME__Show("\nFINAL SCORE - Correct number of button pressed is: ");
 220              		.loc 1 188 0
 221 0008 1F48     		ldr	r0, .L20+4
 222 000a FFF7FEFF 		bl	GAME__Show
 223              	.LVL19:
 189:source\asw/game.c ****     itoa(correct_button_pressed,buffer,10);
 224              		.loc 1 189 0
 225 000e 1F48     		ldr	r0, .L20+8
 226 0010 FFF7FEFF 		bl	GAME__Show
 227              	.LVL20:
 190:source\asw/game.c ****     UART_LOG_PutString(buffer);
 228              		.loc 1 190 0
 229 0014 1E4B     		ldr	r3, .L20+12
ARM GAS  C:\Users\giris\AppData\Local\Temp\ccLipuO9.s 			page 9


 230 0016 1888     		ldrh	r0, [r3]
 231 0018 1E4C     		ldr	r4, .L20+16
 232 001a 0A22     		movs	r2, #10
 233 001c 2146     		mov	r1, r4
 234 001e 80B2     		uxth	r0, r0
 235 0020 FFF7FEFF 		bl	itoa
 236              	.LVL21:
 191:source\asw/game.c ****     UART_LOG_PutString("\n");
 237              		.loc 1 191 0
 238 0024 2046     		mov	r0, r4
 239 0026 FFF7FEFF 		bl	UART_LOG_PutString
 240              	.LVL22:
 192:source\asw/game.c ****     
 241              		.loc 1 192 0
 242 002a 1B4D     		ldr	r5, .L20+20
 243 002c 2846     		mov	r0, r5
 244 002e FFF7FEFF 		bl	UART_LOG_PutString
 245              	.LVL23:
 194:source\asw/game.c ****     itoa(sys_tick_count,buffer,10);
 246              		.loc 1 194 0
 247 0032 1A48     		ldr	r0, .L20+24
 248 0034 FFF7FEFF 		bl	GAME__Show
 249              	.LVL24:
 195:source\asw/game.c ****     UART_LOG_PutString(buffer);
 250              		.loc 1 195 0
 251 0038 194E     		ldr	r6, .L20+28
 252 003a 3088     		ldrh	r0, [r6]
 253 003c 0A22     		movs	r2, #10
 254 003e 2146     		mov	r1, r4
 255 0040 80B2     		uxth	r0, r0
 256 0042 FFF7FEFF 		bl	itoa
 257              	.LVL25:
 196:source\asw/game.c ****     GAME__Show("\n");
 258              		.loc 1 196 0
 259 0046 2046     		mov	r0, r4
 260 0048 FFF7FEFF 		bl	UART_LOG_PutString
 261              	.LVL26:
 197:source\asw/game.c ****     
 262              		.loc 1 197 0
 263 004c 2846     		mov	r0, r5
 264 004e FFF7FEFF 		bl	GAME__Show
 265              	.LVL27:
 199:source\asw/game.c ****     average_game_time = sys_tick_count/GAME_ROUNDS;
 266              		.loc 1 199 0
 267 0052 1448     		ldr	r0, .L20+32
 268 0054 FFF7FEFF 		bl	GAME__Show
 269              	.LVL28:
 200:source\asw/game.c ****     itoa(average_game_time,buffer,10);
 270              		.loc 1 200 0
 271 0058 3388     		ldrh	r3, [r6]
 272 005a 9BB2     		uxth	r3, r3
 273 005c 124A     		ldr	r2, .L20+36
 274 005e A2FB0323 		umull	r2, r3, r2, r3
 275 0062 DB08     		lsrs	r3, r3, #3
 276 0064 114A     		ldr	r2, .L20+40
 277 0066 1380     		strh	r3, [r2]	@ movhi
 201:source\asw/game.c ****     UART_LOG_PutString(buffer);
ARM GAS  C:\Users\giris\AppData\Local\Temp\ccLipuO9.s 			page 10


 278              		.loc 1 201 0
 279 0068 1088     		ldrh	r0, [r2]
 280 006a 0A22     		movs	r2, #10
 281 006c 2146     		mov	r1, r4
 282 006e 80B2     		uxth	r0, r0
 283 0070 FFF7FEFF 		bl	itoa
 284              	.LVL29:
 202:source\asw/game.c ****     GAME__Show("\n");
 285              		.loc 1 202 0
 286 0074 2046     		mov	r0, r4
 287 0076 FFF7FEFF 		bl	UART_LOG_PutString
 288              	.LVL30:
 203:source\asw/game.c **** }
 289              		.loc 1 203 0
 290 007a 2846     		mov	r0, r5
 291 007c FFF7FEFF 		bl	GAME__Show
 292              	.LVL31:
 293 0080 70BD     		pop	{r4, r5, r6, pc}
 294              	.L21:
 295 0082 00BF     		.align	2
 296              	.L20:
 297 0084 00000000 		.word	.LC0
 298 0088 14000000 		.word	.LC1
 299 008c 40000000 		.word	.LC2
 300 0090 00000000 		.word	correct_button_pressed
 301 0094 00000000 		.word	buffer
 302 0098 78000000 		.word	.LC3
 303 009c 7C000000 		.word	.LC4
 304 00a0 00000000 		.word	sys_tick_count
 305 00a4 A4000000 		.word	.LC5
 306 00a8 CDCCCCCC 		.word	-858993459
 307 00ac 00000000 		.word	average_game_time
 308              		.cfi_endproc
 309              	.LFE115:
 310              		.size	GAME__DisplayTime, .-GAME__DisplayTime
 311              		.section	.text.GAME__DisplayResult,"ax",%progbits
 312              		.align	2
 313              		.global	GAME__DisplayResult
 314              		.thumb
 315              		.thumb_func
 316              		.type	GAME__DisplayResult, %function
 317              	GAME__DisplayResult:
 318              	.LFB116:
 207:source\asw/game.c ****     game_rounds++;
 319              		.loc 1 207 0
 320              		.cfi_startproc
 321              		@ args = 0, pretend = 0, frame = 0
 322              		@ frame_needed = 0, uses_anonymous_args = 0
 208:source\asw/game.c ****     if(game_rounds <= GAME_ROUNDS)
 323              		.loc 1 208 0
 324 0000 104A     		ldr	r2, .L26
 325 0002 1388     		ldrh	r3, [r2]
 326 0004 9BB2     		uxth	r3, r3
 327 0006 0133     		adds	r3, r3, #1
 328 0008 9BB2     		uxth	r3, r3
 329 000a 1380     		strh	r3, [r2]	@ movhi
 209:source\asw/game.c ****     {
ARM GAS  C:\Users\giris\AppData\Local\Temp\ccLipuO9.s 			page 11


 330              		.loc 1 209 0
 331 000c 1388     		ldrh	r3, [r2]
 332 000e 9BB2     		uxth	r3, r3
 333 0010 0A2B     		cmp	r3, #10
 334 0012 15D8     		bhi	.L25
 207:source\asw/game.c ****     game_rounds++;
 335              		.loc 1 207 0
 336 0014 10B5     		push	{r4, lr}
 337              		.cfi_def_cfa_offset 8
 338              		.cfi_offset 4, -8
 339              		.cfi_offset 14, -4
 211:source\asw/game.c ****         itoa(game_rounds,buffer,10);
 340              		.loc 1 211 0
 341 0016 0C48     		ldr	r0, .L26+4
 342 0018 FFF7FEFF 		bl	GAME__Show
 343              	.LVL32:
 212:source\asw/game.c ****         UART_LOG_PutString(buffer);
 344              		.loc 1 212 0
 345 001c 094B     		ldr	r3, .L26
 346 001e 1888     		ldrh	r0, [r3]
 347 0020 0A4C     		ldr	r4, .L26+8
 348 0022 0A22     		movs	r2, #10
 349 0024 2146     		mov	r1, r4
 350 0026 80B2     		uxth	r0, r0
 351 0028 FFF7FEFF 		bl	itoa
 352              	.LVL33:
 213:source\asw/game.c ****         UART_LOG_PutString("\n");
 353              		.loc 1 213 0
 354 002c 2046     		mov	r0, r4
 355 002e FFF7FEFF 		bl	UART_LOG_PutString
 356              	.LVL34:
 214:source\asw/game.c ****         GAME__Show("Press one of the two buttons to start the round...\n");
 357              		.loc 1 214 0
 358 0032 0748     		ldr	r0, .L26+12
 359 0034 FFF7FEFF 		bl	UART_LOG_PutString
 360              	.LVL35:
 215:source\asw/game.c ****     }
 361              		.loc 1 215 0
 362 0038 0648     		ldr	r0, .L26+16
 363 003a FFF7FEFF 		bl	GAME__Show
 364              	.LVL36:
 365 003e 10BD     		pop	{r4, pc}
 366              	.L25:
 367              		.cfi_def_cfa_offset 0
 368              		.cfi_restore 4
 369              		.cfi_restore 14
 370 0040 7047     		bx	lr
 371              	.L27:
 372 0042 00BF     		.align	2
 373              	.L26:
 374 0044 00000000 		.word	game_rounds
 375 0048 CC000000 		.word	.LC6
 376 004c 00000000 		.word	buffer
 377 0050 78000000 		.word	.LC3
 378 0054 EC000000 		.word	.LC7
 379              		.cfi_endproc
 380              	.LFE116:
ARM GAS  C:\Users\giris\AppData\Local\Temp\ccLipuO9.s 			page 12


 381              		.size	GAME__DisplayResult, .-GAME__DisplayResult
 382              		.section	.text.GAME__Play,"ax",%progbits
 383              		.align	2
 384              		.global	GAME__Play
 385              		.thumb
 386              		.thumb_func
 387              		.type	GAME__Play, %function
 388              	GAME__Play:
 389              	.LFB114:
 108:source\asw/game.c ****     switch (GAME__State)
 390              		.loc 1 108 0
 391              		.cfi_startproc
 392              		@ args = 0, pretend = 0, frame = 0
 393              		@ frame_needed = 0, uses_anonymous_args = 0
 394              	.LVL37:
 395 0000 10B5     		push	{r4, lr}
 396              		.cfi_def_cfa_offset 8
 397              		.cfi_offset 4, -8
 398              		.cfi_offset 14, -4
 109:source\asw/game.c ****     {
 399              		.loc 1 109 0
 400 0002 334B     		ldr	r3, .L36
 401 0004 9B78     		ldrb	r3, [r3, #2]	@ zero_extendqisi2
 402 0006 012B     		cmp	r3, #1
 403 0008 0CD0     		beq	.L30
 404 000a 13B1     		cbz	r3, .L31
 405 000c 022B     		cmp	r3, #2
 406 000e 1ED0     		beq	.L32
 407 0010 5CE0     		b	.L29
 408              	.L31:
 112:source\asw/game.c ****             {
 409              		.loc 1 112 0
 410 0012 0128     		cmp	r0, #1
 411 0014 5AD1     		bne	.L29
 116:source\asw/game.c ****                 GAME__State = GAME__ISWAITINGRANDOMTIME; 
 412              		.loc 1 116 0
 413 0016 0321     		movs	r1, #3
 414              	.LVL38:
 415 0018 FFF7FEFF 		bl	GAME__StartRandomTimer
 416              	.LVL39:
 117:source\asw/game.c ****                 //SetEvent(task_control, ev_Timeout);
 417              		.loc 1 117 0
 418 001c 0122     		movs	r2, #1
 419 001e 2C4B     		ldr	r3, .L36
 420 0020 9A70     		strb	r2, [r3, #2]
 421 0022 53E0     		b	.L29
 422              	.LVL40:
 423              	.L30:
 123:source\asw/game.c ****             {
 424              		.loc 1 123 0
 425 0024 0228     		cmp	r0, #2
 426 0026 51D1     		bne	.L29
 127:source\asw/game.c ****                 GAME__ShowRandom7SegmentValue();
 427              		.loc 1 127 0
 428 0028 FFF7FEFF 		bl	EE_oo_CancelAlarm
 429              	.LVL41:
 128:source\asw/game.c ****                 GAME__State = GAME__ISWAITINGBUTTON; 
ARM GAS  C:\Users\giris\AppData\Local\Temp\ccLipuO9.s 			page 13


 430              		.loc 1 128 0
 431 002c FFF7FEFF 		bl	GAME__ShowRandom7SegmentValue
 432              	.LVL42:
 129:source\asw/game.c ****                 SetRelAlarm(alarm_wait1s,1000,0);
 433              		.loc 1 129 0
 434 0030 0222     		movs	r2, #2
 435 0032 274B     		ldr	r3, .L36
 436 0034 9A70     		strb	r2, [r3, #2]
 130:source\asw/game.c ****                 
 437              		.loc 1 130 0
 438 0036 0022     		movs	r2, #0
 439 0038 4FF47A71 		mov	r1, #1000
 440 003c 0120     		movs	r0, #1
 441 003e FFF7FEFF 		bl	EE_oo_SetRelAlarm
 442              	.LVL43:
 132:source\asw/game.c **** //                GAME__Show("temp1 value: ");
 443              		.loc 1 132 0
 444 0042 244B     		ldr	r3, .L36+4
 445 0044 1B88     		ldrh	r3, [r3]
 446 0046 9BB2     		uxth	r3, r3
 447 0048 234A     		ldr	r2, .L36+8
 448 004a 1380     		strh	r3, [r2]	@ movhi
 449 004c 3EE0     		b	.L29
 450              	.LVL44:
 451              	.L32:
 146:source\asw/game.c ****             {
 452              		.loc 1 146 0
 453 004e 0128     		cmp	r0, #1
 454 0050 3CD1     		bne	.L29
 148:source\asw/game.c ****                 {
 455              		.loc 1 148 0
 456 0052 0846     		mov	r0, r1
 457              	.LVL45:
 458 0054 FFF7FEFF 		bl	GAME__CorrectButton
 459              	.LVL46:
 460 0058 38B3     		cbz	r0, .L33
 150:source\asw/game.c ****                     correct_button_pressed++;
 461              		.loc 1 150 0
 462 005a 2048     		ldr	r0, .L36+12
 463 005c FFF7FEFF 		bl	GAME__Show
 464              	.LVL47:
 151:source\asw/game.c ****                     
 465              		.loc 1 151 0
 466 0060 1F4A     		ldr	r2, .L36+16
 467 0062 1388     		ldrh	r3, [r2]
 468 0064 9BB2     		uxth	r3, r3
 469 0066 0133     		adds	r3, r3, #1
 470 0068 9BB2     		uxth	r3, r3
 471 006a 1380     		strh	r3, [r2]	@ movhi
 153:source\asw/game.c **** //                    GAME__Show("temp2 value: ");
 472              		.loc 1 153 0
 473 006c 194B     		ldr	r3, .L36+4
 474 006e 1B88     		ldrh	r3, [r3]
 475 0070 9BB2     		uxth	r3, r3
 476 0072 1C4A     		ldr	r2, .L36+20
 477 0074 1380     		strh	r3, [r2]	@ movhi
 164:source\asw/game.c ****                     GAME__Show("Reaction time(ms): ");
ARM GAS  C:\Users\giris\AppData\Local\Temp\ccLipuO9.s 			page 14


 478              		.loc 1 164 0
 479 0076 1388     		ldrh	r3, [r2]
 480 0078 9AB2     		uxth	r2, r3
 481 007a 174B     		ldr	r3, .L36+8
 482 007c 1B88     		ldrh	r3, [r3]
 483 007e 9BB2     		uxth	r3, r3
 484 0080 D31A     		subs	r3, r2, r3
 485 0082 9BB2     		uxth	r3, r3
 486 0084 184C     		ldr	r4, .L36+24
 487 0086 2380     		strh	r3, [r4]	@ movhi
 165:source\asw/game.c ****                     itoa(reaction_time,buffer,10);
 488              		.loc 1 165 0
 489 0088 1848     		ldr	r0, .L36+28
 490 008a FFF7FEFF 		bl	GAME__Show
 491              	.LVL48:
 166:source\asw/game.c ****                     UART_LOG_PutString(buffer);
 492              		.loc 1 166 0
 493 008e 2088     		ldrh	r0, [r4]
 494 0090 174C     		ldr	r4, .L36+32
 495 0092 0A22     		movs	r2, #10
 496 0094 2146     		mov	r1, r4
 497 0096 80B2     		uxth	r0, r0
 498 0098 FFF7FEFF 		bl	itoa
 499              	.LVL49:
 167:source\asw/game.c ****                     GAME__Show("\n");
 500              		.loc 1 167 0
 501 009c 2046     		mov	r0, r4
 502 009e FFF7FEFF 		bl	UART_LOG_PutString
 503              	.LVL50:
 168:source\asw/game.c ****                 }
 504              		.loc 1 168 0
 505 00a2 1448     		ldr	r0, .L36+36
 506 00a4 FFF7FEFF 		bl	GAME__Show
 507              	.LVL51:
 508 00a8 02E0     		b	.L34
 509              	.L33:
 172:source\asw/game.c ****                 }
 510              		.loc 1 172 0
 511 00aa 1348     		ldr	r0, .L36+40
 512 00ac FFF7FEFF 		bl	GAME__Show
 513              	.LVL52:
 514              	.L34:
 174:source\asw/game.c ****                 CancelAlarm(alarm_wait1s);
 515              		.loc 1 174 0
 516 00b0 0024     		movs	r4, #0
 517 00b2 074B     		ldr	r3, .L36
 518 00b4 9C70     		strb	r4, [r3, #2]
 175:source\asw/game.c ****                 
 519              		.loc 1 175 0
 520 00b6 0120     		movs	r0, #1
 521 00b8 FFF7FEFF 		bl	EE_oo_CancelAlarm
 522              	.LVL53:
 177:source\asw/game.c ****                 SevenSegmentClear(Seven_Segment_Right);
 523              		.loc 1 177 0
 524 00bc 0120     		movs	r0, #1
 525 00be FFF7FEFF 		bl	SevenSegmentClear
 526              	.LVL54:
ARM GAS  C:\Users\giris\AppData\Local\Temp\ccLipuO9.s 			page 15


 178:source\asw/game.c ****                 
 527              		.loc 1 178 0
 528 00c2 2046     		mov	r0, r4
 529 00c4 FFF7FEFF 		bl	SevenSegmentClear
 530              	.LVL55:
 180:source\asw/game.c ****             }   
 531              		.loc 1 180 0
 532 00c8 FFF7FEFF 		bl	GAME__DisplayResult
 533              	.LVL56:
 534              	.L29:
 184:source\asw/game.c **** void GAME__DisplayTime()
 535              		.loc 1 184 0
 536 00cc 0020     		movs	r0, #0
 537 00ce 10BD     		pop	{r4, pc}
 538              	.L37:
 539              		.align	2
 540              	.L36:
 541 00d0 00000000 		.word	.LANCHOR0
 542 00d4 00000000 		.word	sys_tick_count
 543 00d8 00000000 		.word	temp1
 544 00dc 20010000 		.word	.LC8
 545 00e0 00000000 		.word	correct_button_pressed
 546 00e4 00000000 		.word	temp2
 547 00e8 00000000 		.word	reaction_time
 548 00ec 44010000 		.word	.LC9
 549 00f0 00000000 		.word	buffer
 550 00f4 78000000 		.word	.LC3
 551 00f8 58010000 		.word	.LC10
 552              		.cfi_endproc
 553              	.LFE114:
 554              		.size	GAME__Play, .-GAME__Play
 555              		.comm	buffer,32,4
 556              		.comm	reaction_time,2,2
 557              		.comm	temp2,2,2
 558              		.comm	temp1,2,2
 559              		.comm	average_game_time,2,2
 560              		.comm	sys_tick_count,2,2
 561              		.comm	correct_button_pressed,2,2
 562              		.comm	game_rounds,2,2
 563              		.section	.rodata.str1.4,"aMS",%progbits,1
 564              		.align	2
 565              	.LC0:
 566 0000 0A0A454E 		.ascii	"\012\012END OF THE GAME\012\000"
 566      44204F46 
 566      20544845 
 566      2047414D 
 566      450A00
 567 0013 00       		.space	1
 568              	.LC1:
 569 0014 0A42656C 		.ascii	"\012Below are your Reaction Game Results.....\012\000"
 569      6F772061 
 569      72652079 
 569      6F757220 
 569      52656163 
 570              	.LC2:
 571 0040 0A46494E 		.ascii	"\012FINAL SCORE - Correct number of button pressed "
 571      414C2053 
ARM GAS  C:\Users\giris\AppData\Local\Temp\ccLipuO9.s 			page 16


 571      434F5245 
 571      202D2043 
 571      6F727265 
 572 0070 69733A20 		.ascii	"is: \000"
 572      00
 573 0075 000000   		.space	3
 574              	.LC3:
 575 0078 0A00     		.ascii	"\012\000"
 576 007a 0000     		.space	2
 577              	.LC4:
 578 007c 546F7461 		.ascii	"Total Reaction time of the Game(ms): \000"
 578      6C205265 
 578      61637469 
 578      6F6E2074 
 578      696D6520 
 579 00a2 0000     		.space	2
 580              	.LC5:
 581 00a4 41766572 		.ascii	"Average Reaction time of the Game(ms): \000"
 581      61676520 
 581      52656163 
 581      74696F6E 
 581      2074696D 
 582              	.LC6:
 583 00cc 0A526561 		.ascii	"\012Reaction test program ROUND \000"
 583      6374696F 
 583      6E207465 
 583      73742070 
 583      726F6772 
 584 00ea 0000     		.space	2
 585              	.LC7:
 586 00ec 50726573 		.ascii	"Press one of the two buttons to start the round...\012"
 586      73206F6E 
 586      65206F66 
 586      20746865 
 586      2074776F 
 587 011f 00       		.ascii	"\000"
 588              	.LC8:
 589 0120 0A477265 		.ascii	"\012Great!! - Correct Button Pressed\012\000"
 589      61742121 
 589      202D2043 
 589      6F727265 
 589      63742042 
 590 0143 00       		.space	1
 591              	.LC9:
 592 0144 52656163 		.ascii	"Reaction time(ms): \000"
 592      74696F6E 
 592      2074696D 
 592      65286D73 
 592      293A2000 
 593              	.LC10:
 594 0158 0A4F6F70 		.ascii	"\012Oopss!! - Wrong Button Pressed\012\000"
 594      73732121 
 594      202D2057 
 594      726F6E67 
 594      20427574 
 595              		.bss
 596              		.align	1
ARM GAS  C:\Users\giris\AppData\Local\Temp\ccLipuO9.s 			page 17


 597              		.set	.LANCHOR0,. + 0
 598              		.type	random_7segment_value, %object
 599              		.size	random_7segment_value, 2
 600              	random_7segment_value:
 601 0000 0000     		.space	2
 602              		.type	GAME__State, %object
 603              		.size	GAME__State, 1
 604              	GAME__State:
 605 0002 00       		.space	1
 606              		.text
 607              	.Letext0:
 608              		.file 2 ".\\source\\bsw/global.h"
 609              		.file 3 "c:\\program files (x86)\\cypress\\psoc creator\\4.4\\psoc creator\\import\\gnu\\arm\\5.4.
 610              		.file 4 "c:\\program files (x86)\\cypress\\psoc creator\\4.4\\psoc creator\\import\\gnu\\arm\\5.4.
 611              		.file 5 "Generated_Source\\PSoC5/cytypes.h"
 612              		.file 6 "Generated_Source\\PSoC5/ErikaOS_1_common_ee_types.inc"
 613              		.file 7 "Generated_Source\\PSoC5/ErikaOS_1_cortex_mx_ee_cpu.inc"
 614              		.file 8 "Generated_Source\\PSoC5/ErikaOS_1_ee_oo_common.inc"
 615              		.file 9 "source\\asw\\game.h"
 616              		.file 10 "Generated_Source\\PSoC5/ErikaOS_1_ee_oo_intfunc.inc"
 617              		.file 11 "Generated_Source\\PSoC5/ErikaOS_1_cortex_mx_ee_context.inc"
 618              		.file 12 "Generated_Source\\PSoC5/ErikaOS_1_common_ee_primitives.inc"
 619              		.file 13 "Generated_Source\\PSoC5/core_cm3.h"
 620              		.file 14 "c:\\program files (x86)\\cypress\\psoc creator\\4.4\\psoc creator\\import\\gnu\\arm\\5.4
 621              		.file 15 "Generated_Source\\PSoC5/ErikaOS_1_ee_oo_kernel.inc"
 622              		.file 16 ".\\source\\bsw/seven_segment.h"
 623              		.file 17 "Generated_Source\\PSoC5/UART_LOG.h"