ARM GAS  C:\Users\giris\AppData\Local\Temp\cce12aUf.s 			page 1


   1              		.syntax unified
   2              		.cpu cortex-m3
   3              		.fpu softvfp
   4              		.eabi_attribute 20, 1
   5              		.eabi_attribute 21, 1
   6              		.eabi_attribute 23, 3
   7              		.eabi_attribute 24, 1
   8              		.eabi_attribute 25, 1
   9              		.eabi_attribute 26, 1
  10              		.eabi_attribute 30, 1
  11              		.eabi_attribute 34, 1
  12              		.eabi_attribute 18, 4
  13              		.thumb
  14              		.syntax unified
  15              		.file	"seven_segment.c"
  16              		.text
  17              	.Ltext0:
  18              		.cfi_sections	.debug_frame
  19              		.section	.text.SevenSegmentClear,"ax",%progbits
  20              		.align	2
  21              		.global	SevenSegmentClear
  22              		.thumb
  23              		.thumb_func
  24              		.type	SevenSegmentClear, %function
  25              	SevenSegmentClear:
  26              	.LFB111:
  27              		.file 1 "source\\bsw\\seven_segment.c"
   1:source\bsw/seven_segment.c **** /**
   2:source\bsw/seven_segment.c **** * \file <filename>
   3:source\bsw/seven_segment.c **** * \author <author-name>
   4:source\bsw/seven_segment.c **** * \date <date>
   5:source\bsw/seven_segment.c **** *
   6:source\bsw/seven_segment.c **** * \brief <Symbolic File name>
   7:source\bsw/seven_segment.c **** *
   8:source\bsw/seven_segment.c **** * \copyright Copyright ©2016
   9:source\bsw/seven_segment.c **** * Department of electrical engineering and information technology, Hochschule Darmstadt - Universit
  10:source\bsw/seven_segment.c **** * Permission to use, copy, modify, and distribute this software and its documentation for education
  11:source\bsw/seven_segment.c **** * (unless permitted by h_da) and official h_da projects, is hereby granted for enrolled students of
  12:source\bsw/seven_segment.c **** * this paragraph and the following paragraph appear in all copies, modifications, and distributions
  13:source\bsw/seven_segment.c **** * Contact Prof.Dr.-Ing. Peter Fromm, peter.fromm@h-da.de, Birkenweg 8 64295 Darmstadt - GERMANY for
  14:source\bsw/seven_segment.c **** *
  15:source\bsw/seven_segment.c **** * \warning This software is a PROTOTYPE version and is not designed or intended for use in producti
  16:source\bsw/seven_segment.c **** * The user represents and warrants that it will NOT use or redistribute the Software for such purpo
  17:source\bsw/seven_segment.c **** * This prototype is for research purposes only. This software is provided "AS IS," without a warran
  18:source\bsw/seven_segment.c **** */
  19:source\bsw/seven_segment.c **** 
  20:source\bsw/seven_segment.c **** /*****************************************************************************/
  21:source\bsw/seven_segment.c **** /* Include files                                                             */
  22:source\bsw/seven_segment.c **** /*****************************************************************************/
  23:source\bsw/seven_segment.c **** #include "project.h"
  24:source\bsw/seven_segment.c **** #include "seven_segment.h"
  25:source\bsw/seven_segment.c **** 
  26:source\bsw/seven_segment.c **** /*****************************************************************************/
  27:source\bsw/seven_segment.c **** /* Local pre-processor symbols/macros ('#define')                            */
  28:source\bsw/seven_segment.c **** /*****************************************************************************/
  29:source\bsw/seven_segment.c **** 
  30:source\bsw/seven_segment.c **** /*****************************************************************************/
ARM GAS  C:\Users\giris\AppData\Local\Temp\cce12aUf.s 			page 2


  31:source\bsw/seven_segment.c **** /* Global variable definitions (declared in header file with 'extern')       */
  32:source\bsw/seven_segment.c **** /*****************************************************************************/
  33:source\bsw/seven_segment.c **** 
  34:source\bsw/seven_segment.c **** /*****************************************************************************/
  35:source\bsw/seven_segment.c **** /* Local type definitions ('typedef')                                        */
  36:source\bsw/seven_segment.c **** /*****************************************************************************/
  37:source\bsw/seven_segment.c **** 
  38:source\bsw/seven_segment.c **** /*****************************************************************************/
  39:source\bsw/seven_segment.c **** /* Local variable definitions ('static')                                     */
  40:source\bsw/seven_segment.c **** /*****************************************************************************/
  41:source\bsw/seven_segment.c **** const static uint8_t Seven_Segment_Lookup [] = {
  42:source\bsw/seven_segment.c ****     0b00111111, // 0
  43:source\bsw/seven_segment.c ****     0b00000110, // 1
  44:source\bsw/seven_segment.c ****     0b01011011, // 2
  45:source\bsw/seven_segment.c ****     0b01001111, // 3
  46:source\bsw/seven_segment.c ****     0b01100110, // 4
  47:source\bsw/seven_segment.c ****     0b01101101, // 5
  48:source\bsw/seven_segment.c ****     0b01111101, // 6
  49:source\bsw/seven_segment.c ****     0b00000111, // 7
  50:source\bsw/seven_segment.c ****     0b01111111, // 8
  51:source\bsw/seven_segment.c ****     0b01101111, // 9
  52:source\bsw/seven_segment.c ****     0x77,       // a
  53:source\bsw/seven_segment.c ****     0x7c,       // b
  54:source\bsw/seven_segment.c ****     0x39,       // c
  55:source\bsw/seven_segment.c ****     0x5e,       // d
  56:source\bsw/seven_segment.c ****     0x79,       // e
  57:source\bsw/seven_segment.c ****     0x71,       // f
  58:source\bsw/seven_segment.c **** };
  59:source\bsw/seven_segment.c **** 
  60:source\bsw/seven_segment.c **** /*****************************************************************************/
  61:source\bsw/seven_segment.c **** /* Local function prototypes ('static')                                      */
  62:source\bsw/seven_segment.c **** /*****************************************************************************/
  63:source\bsw/seven_segment.c **** 
  64:source\bsw/seven_segment.c **** 
  65:source\bsw/seven_segment.c **** /*****************************************************************************/
  66:source\bsw/seven_segment.c **** /* Function implementation - global ('extern') and local ('static')          */
  67:source\bsw/seven_segment.c **** /*****************************************************************************/
  68:source\bsw/seven_segment.c **** 
  69:source\bsw/seven_segment.c **** /**
  70:source\bsw/seven_segment.c ****  * This function initializes the seven segment displays needed for the game.
  71:source\bsw/seven_segment.c ****  * @param None
  72:source\bsw/seven_segment.c ****  * @return RC_t Success, if the function executes without any error.
  73:source\bsw/seven_segment.c ****  */
  74:source\bsw/seven_segment.c **** RC_t SevenSegment_init()
  75:source\bsw/seven_segment.c **** {
  76:source\bsw/seven_segment.c ****     SevenSegmentClear(Seven_Segment_Left);
  77:source\bsw/seven_segment.c ****     SevenSegmentClear(Seven_Segment_Right);
  78:source\bsw/seven_segment.c ****     return RC_SUCCESS;
  79:source\bsw/seven_segment.c **** }
  80:source\bsw/seven_segment.c **** 
  81:source\bsw/seven_segment.c **** /**
  82:source\bsw/seven_segment.c ****  * This function is used to clear the 7 segment displays.
  83:source\bsw/seven_segment.c ****  * @param Segement_ID - takes the left or right display as parameter
  84:source\bsw/seven_segment.c ****  * @return RC_t Success, if the function executes without any error.
  85:source\bsw/seven_segment.c ****  */
  86:source\bsw/seven_segment.c **** RC_t SevenSegmentClear(mySeven_t Segement_ID)
  87:source\bsw/seven_segment.c **** {
ARM GAS  C:\Users\giris\AppData\Local\Temp\cce12aUf.s 			page 3


  28              		.loc 1 87 0
  29              		.cfi_startproc
  30              		@ args = 0, pretend = 0, frame = 0
  31              		@ frame_needed = 0, uses_anonymous_args = 0
  32              	.LVL0:
  33 0000 08B5     		push	{r3, lr}
  34              		.cfi_def_cfa_offset 8
  35              		.cfi_offset 3, -8
  36              		.cfi_offset 14, -4
  88:source\bsw/seven_segment.c ****     if(Segement_ID == Seven_Segment_Left)
  37              		.loc 1 88 0
  38 0002 0128     		cmp	r0, #1
  39 0004 02D1     		bne	.L2
  89:source\bsw/seven_segment.c ****     {
  90:source\bsw/seven_segment.c ****         SEVEN_Select_Write(1);   
  40              		.loc 1 90 0
  41 0006 FFF7FEFF 		bl	SEVEN_Select_Write
  42              	.LVL1:
  43 000a 02E0     		b	.L3
  44              	.LVL2:
  45              	.L2:
  91:source\bsw/seven_segment.c ****     }
  92:source\bsw/seven_segment.c ****     else
  93:source\bsw/seven_segment.c ****     {
  94:source\bsw/seven_segment.c ****         SEVEN_Select_Write(0);
  46              		.loc 1 94 0
  47 000c 0020     		movs	r0, #0
  48              	.LVL3:
  49 000e FFF7FEFF 		bl	SEVEN_Select_Write
  50              	.LVL4:
  51              	.L3:
  95:source\bsw/seven_segment.c ****     }
  96:source\bsw/seven_segment.c ****     Seven_Segment_Register_Write(0);
  52              		.loc 1 96 0
  53 0012 0020     		movs	r0, #0
  54 0014 FFF7FEFF 		bl	Seven_Segment_Register_Write
  55              	.LVL5:
  97:source\bsw/seven_segment.c ****     
  98:source\bsw/seven_segment.c ****     return RC_SUCCESS;
  99:source\bsw/seven_segment.c **** }
  56              		.loc 1 99 0
  57 0018 0020     		movs	r0, #0
  58 001a 08BD     		pop	{r3, pc}
  59              		.cfi_endproc
  60              	.LFE111:
  61              		.size	SevenSegmentClear, .-SevenSegmentClear
  62              		.section	.text.SevenSegment_init,"ax",%progbits
  63              		.align	2
  64              		.global	SevenSegment_init
  65              		.thumb
  66              		.thumb_func
  67              		.type	SevenSegment_init, %function
  68              	SevenSegment_init:
  69              	.LFB110:
  75:source\bsw/seven_segment.c ****     SevenSegmentClear(Seven_Segment_Left);
  70              		.loc 1 75 0
  71              		.cfi_startproc
ARM GAS  C:\Users\giris\AppData\Local\Temp\cce12aUf.s 			page 4


  72              		@ args = 0, pretend = 0, frame = 0
  73              		@ frame_needed = 0, uses_anonymous_args = 0
  74 0000 08B5     		push	{r3, lr}
  75              		.cfi_def_cfa_offset 8
  76              		.cfi_offset 3, -8
  77              		.cfi_offset 14, -4
  76:source\bsw/seven_segment.c ****     SevenSegmentClear(Seven_Segment_Right);
  78              		.loc 1 76 0
  79 0002 0120     		movs	r0, #1
  80 0004 FFF7FEFF 		bl	SevenSegmentClear
  81              	.LVL6:
  77:source\bsw/seven_segment.c ****     return RC_SUCCESS;
  82              		.loc 1 77 0
  83 0008 0020     		movs	r0, #0
  84 000a FFF7FEFF 		bl	SevenSegmentClear
  85              	.LVL7:
  79:source\bsw/seven_segment.c **** 
  86              		.loc 1 79 0
  87 000e 0020     		movs	r0, #0
  88 0010 08BD     		pop	{r3, pc}
  89              		.cfi_endproc
  90              	.LFE110:
  91              		.size	SevenSegment_init, .-SevenSegment_init
  92 0012 00BF     		.section	.text.Seven_Segment_Write,"ax",%progbits
  93              		.align	2
  94              		.global	Seven_Segment_Write
  95              		.thumb
  96              		.thumb_func
  97              		.type	Seven_Segment_Write, %function
  98              	Seven_Segment_Write:
  99              	.LFB112:
 100:source\bsw/seven_segment.c **** 
 101:source\bsw/seven_segment.c **** /**
 102:source\bsw/seven_segment.c ****  * This function writes a value to the selected display
 103:source\bsw/seven_segment.c ****  * @param pass the mySeven_t id from the enum
 104:source\bsw/seven_segment.c ****  * @param value to be displayed 
 105:source\bsw/seven_segment.c ****  * @return Success, if the function executes without any error.
 106:source\bsw/seven_segment.c ****  */
 107:source\bsw/seven_segment.c **** RC_t Seven_Segment_Write(mySeven_t Segment_ID, uint8_t value)
 108:source\bsw/seven_segment.c **** {
 100              		.loc 1 108 0
 101              		.cfi_startproc
 102              		@ args = 0, pretend = 0, frame = 0
 103              		@ frame_needed = 0, uses_anonymous_args = 0
 104              	.LVL8:
 105 0000 10B5     		push	{r4, lr}
 106              		.cfi_def_cfa_offset 8
 107              		.cfi_offset 4, -8
 108              		.cfi_offset 14, -4
 109 0002 0C46     		mov	r4, r1
 109:source\bsw/seven_segment.c ****     SEVEN_Select_Write(Segment_ID);
 110              		.loc 1 109 0
 111 0004 FFF7FEFF 		bl	SEVEN_Select_Write
 112              	.LVL9:
 110:source\bsw/seven_segment.c ****     
 111:source\bsw/seven_segment.c ****     uint8_t Letter_to_print = Seven_Segment_Lookup[value];
 112:source\bsw/seven_segment.c ****     Seven_Segment_Register_Write(Letter_to_print);
ARM GAS  C:\Users\giris\AppData\Local\Temp\cce12aUf.s 			page 5


 113              		.loc 1 112 0
 114 0008 024B     		ldr	r3, .L9
 115 000a 185D     		ldrb	r0, [r3, r4]	@ zero_extendqisi2
 116 000c FFF7FEFF 		bl	Seven_Segment_Register_Write
 117              	.LVL10:
 113:source\bsw/seven_segment.c ****     
 114:source\bsw/seven_segment.c ****     if(Letter_to_print > 0xff) return RC_ERROR_BAD_PARAM;
 115:source\bsw/seven_segment.c ****     
 116:source\bsw/seven_segment.c ****     return RC_SUCCESS;
 117:source\bsw/seven_segment.c **** }
 118              		.loc 1 117 0
 119 0010 0020     		movs	r0, #0
 120 0012 10BD     		pop	{r4, pc}
 121              	.LVL11:
 122              	.L10:
 123              		.align	2
 124              	.L9:
 125 0014 00000000 		.word	.LANCHOR0
 126              		.cfi_endproc
 127              	.LFE112:
 128              		.size	Seven_Segment_Write, .-Seven_Segment_Write
 129              		.section	.text.Seven_Segment_Print,"ax",%progbits
 130              		.align	2
 131              		.global	Seven_Segment_Print
 132              		.thumb
 133              		.thumb_func
 134              		.type	Seven_Segment_Print, %function
 135              	Seven_Segment_Print:
 136              	.LFB113:
 118:source\bsw/seven_segment.c **** 
 119:source\bsw/seven_segment.c **** /**
 120:source\bsw/seven_segment.c ****  * This function prints the numbers on the selected display
 121:source\bsw/seven_segment.c ****  * @param pass the mySeven_t id from the enum
 122:source\bsw/seven_segment.c ****  * @return Success, if the function executes without any error.
 123:source\bsw/seven_segment.c ****  */
 124:source\bsw/seven_segment.c **** RC_t Seven_Segment_Print(mySeven_t Segment_ID)
 125:source\bsw/seven_segment.c **** {
 137              		.loc 1 125 0
 138              		.cfi_startproc
 139              		@ args = 0, pretend = 0, frame = 0
 140              		@ frame_needed = 0, uses_anonymous_args = 0
 141              	.LVL12:
 142 0000 38B5     		push	{r3, r4, r5, lr}
 143              		.cfi_def_cfa_offset 16
 144              		.cfi_offset 3, -16
 145              		.cfi_offset 4, -12
 146              		.cfi_offset 5, -8
 147              		.cfi_offset 14, -4
 148 0002 0546     		mov	r5, r0
 149              	.LVL13:
 150              	.LBB2:
 126:source\bsw/seven_segment.c ****     for(uint8_t i = 0; i < 16; i++)
 151              		.loc 1 126 0
 152 0004 0024     		movs	r4, #0
 153 0006 09E0     		b	.L12
 154              	.LVL14:
 155              	.L13:
ARM GAS  C:\Users\giris\AppData\Local\Temp\cce12aUf.s 			page 6


 127:source\bsw/seven_segment.c ****     {
 128:source\bsw/seven_segment.c ****         Seven_Segment_Write(Segment_ID, i);
 156              		.loc 1 128 0 discriminator 3
 157 0008 2146     		mov	r1, r4
 158 000a 2846     		mov	r0, r5
 159 000c FFF7FEFF 		bl	Seven_Segment_Write
 160              	.LVL15:
 129:source\bsw/seven_segment.c ****         CyDelay(1000);
 161              		.loc 1 129 0 discriminator 3
 162 0010 4FF47A70 		mov	r0, #1000
 163 0014 FFF7FEFF 		bl	CyDelay
 164              	.LVL16:
 126:source\bsw/seven_segment.c ****     for(uint8_t i = 0; i < 16; i++)
 165              		.loc 1 126 0 discriminator 3
 166 0018 0134     		adds	r4, r4, #1
 167              	.LVL17:
 168 001a E4B2     		uxtb	r4, r4
 169              	.LVL18:
 170              	.L12:
 126:source\bsw/seven_segment.c ****     for(uint8_t i = 0; i < 16; i++)
 171              		.loc 1 126 0 is_stmt 0 discriminator 1
 172 001c 0F2C     		cmp	r4, #15
 173 001e F3D9     		bls	.L13
 174              	.LBE2:
 130:source\bsw/seven_segment.c ****     }
 131:source\bsw/seven_segment.c ****     
 132:source\bsw/seven_segment.c ****     return RC_SUCCESS;   
 133:source\bsw/seven_segment.c **** }...
 175              		.loc 1 133 0 is_stmt 1
 176 0020 0020     		movs	r0, #0
 177 0022 38BD     		pop	{r3, r4, r5, pc}
 178              		.cfi_endproc
 179              	.LFE113:
 180              		.size	Seven_Segment_Print, .-Seven_Segment_Print
 181              		.section	.rodata
 182              		.align	2
 183              		.set	.LANCHOR0,. + 0
 184              		.type	Seven_Segment_Lookup, %object
 185              		.size	Seven_Segment_Lookup, 16
 186              	Seven_Segment_Lookup:
 187 0000 3F       		.byte	63
 188 0001 06       		.byte	6
 189 0002 5B       		.byte	91
 190 0003 4F       		.byte	79
 191 0004 66       		.byte	102
 192 0005 6D       		.byte	109
 193 0006 7D       		.byte	125
 194 0007 07       		.byte	7
 195 0008 7F       		.byte	127
 196 0009 6F       		.byte	111
 197 000a 77       		.byte	119
 198 000b 7C       		.byte	124
 199 000c 39       		.byte	57
 200 000d 5E       		.byte	94
 201 000e 79       		.byte	121
 202 000f 71       		.byte	113
 203              		.text
ARM GAS  C:\Users\giris\AppData\Local\Temp\cce12aUf.s 			page 7


 204              	.Letext0:
 205              		.file 2 "c:\\program files (x86)\\cypress\\psoc creator\\4.4\\psoc creator\\import\\gnu\\arm\\5.4.
 206              		.file 3 "c:\\program files (x86)\\cypress\\psoc creator\\4.4\\psoc creator\\import\\gnu\\arm\\5.4.
 207              		.file 4 "Generated_Source\\PSoC5/ErikaOS_1_common_ee_types.inc"
 208              		.file 5 "Generated_Source\\PSoC5/ErikaOS_1_cortex_mx_ee_cpu.inc"
 209              		.file 6 "source\\bsw\\global.h"
 210              		.file 7 "source\\bsw\\seven_segment.h"
 211              		.file 8 "Generated_Source\\PSoC5/ErikaOS_1_ee_oo_intfunc.inc"
 212              		.file 9 "Generated_Source\\PSoC5/ErikaOS_1_cortex_mx_ee_context.inc"
 213              		.file 10 "Generated_Source\\PSoC5/ErikaOS_1_common_ee_primitives.inc"
 214              		.file 11 "Generated_Source\\PSoC5/core_cm3.h"
 215              		.file 12 "Generated_Source\\PSoC5/SEVEN_Select.h"
 216              		.file 13 "Generated_Source\\PSoC5/Seven_Segment_Register.h"
 217              		.file 14 "Generated_Source\\PSoC5/CyLib.h"